

Microchip MPLAB XC8 Assembler V2.36 build 20220127204148 
                                                                                               Thu Jul 21 22:02:24 2022

Microchip MPLAB XC8 C Compiler v2.36 (Free license) build 20220127204148 Og1 
     1                           	processor	18F26K40
     2                           	fnconf	rparam,??,?,0
     3                           	pagewidth 120
     4                           	opt	flic
     5                           	psect	smallconst,global,reloc=2,class=SMALLCONST,delta=1,noexec
     6                           	psect	nvCOMRAM,global,class=COMRAM,space=1,delta=1,lowdata,noexec
     7                           	psect	cinit,global,reloc=2,class=CODE,delta=1
     8                           	psect	bssCOMRAM,global,class=COMRAM,space=1,delta=1,lowdata,noexec
     9                           	psect	cstackCOMRAM,global,class=COMRAM,space=1,delta=1,lowdata,noexec
    10                           	psect	text0,global,reloc=2,class=CODE,delta=1
    11                           	psect	text1,global,reloc=2,class=CODE,delta=1
    12                           	psect	text2,global,reloc=2,class=CODE,delta=1,group=2
    13                           	psect	text3,global,reloc=2,class=CODE,delta=1,group=2
    14                           	psect	text4,global,reloc=2,class=CODE,delta=1,group=2
    15                           	psect	text5,global,reloc=2,class=CODE,delta=1
    16                           	psect	text6,global,reloc=2,class=CODE,delta=1
    17                           	psect	text7,global,reloc=2,class=CODE,delta=1
    18                           	psect	text8,global,reloc=2,class=CODE,delta=1
    19                           	psect	text9,global,reloc=2,class=CODE,delta=1
    20                           	psect	text10,global,reloc=2,class=CODE,delta=1
    21                           	psect	text11,global,reloc=2,class=CODE,delta=1
    22                           	psect	text12,global,reloc=2,class=CODE,delta=1
    23                           	psect	text13,global,reloc=2,class=CODE,delta=1
    24                           	psect	text14,global,reloc=2,class=CODE,delta=1
    25                           	psect	text15,global,reloc=2,class=CODE,delta=1
    26                           	psect	text16,global,reloc=2,class=CODE,delta=1
    27                           	psect	text17,global,reloc=2,class=CODE,delta=1
    28                           	psect	text18,global,reloc=2,class=CODE,delta=1
    29                           	psect	text19,global,reloc=2,class=CODE,delta=1
    30                           	psect	text20,global,reloc=2,class=CODE,delta=1
    31                           	psect	text21,global,reloc=2,class=CODE,delta=1
    32                           	psect	text22,global,reloc=2,class=CODE,delta=1
    33                           	psect	text23,global,reloc=2,class=CODE,delta=1
    34                           	psect	text24,global,reloc=2,class=CODE,delta=1,group=1
    35                           	psect	text25,global,reloc=2,class=CODE,delta=1
    36                           	psect	text26,global,reloc=2,class=CODE,delta=1
    37                           	psect	text27,global,reloc=2,class=CODE,delta=1,group=2
    38                           	psect	text28,global,reloc=2,class=CODE,delta=1,group=2
    39                           	psect	text29,global,reloc=2,class=CODE,delta=1
    40                           	psect	text30,global,reloc=2,class=CODE,delta=1
    41                           	psect	text31,global,reloc=2,class=CODE,delta=1
    42                           	psect	text32,global,reloc=2,class=CODE,delta=1
    43                           	psect	text33,global,reloc=2,class=CODE,delta=1
    44                           	psect	text34,global,reloc=2,class=CODE,delta=1
    45                           	psect	text35,global,reloc=2,class=CODE,delta=1
    46                           	psect	text36,global,reloc=2,class=CODE,delta=1
    47                           	psect	intcode,global,reloc=2,class=CODE,delta=1
    48                           	psect	text38,global,reloc=2,class=CODE,delta=1
    49                           	psect	text39,global,reloc=2,class=CODE,delta=1
    50                           	psect	text40,global,reloc=2,class=CODE,delta=1
    51                           	psect	text41,global,reloc=2,class=CODE,delta=1
    52                           	psect	text42,global,reloc=2,class=CODE,delta=1
    53                           	psect	text43,global,reloc=2,class=CODE,delta=1
    54                           	psect	text44,global,reloc=2,class=CODE,delta=1
    55                           	psect	text45,global,reloc=2,class=CODE,delta=1
    56                           	psect	text46,global,reloc=2,class=CODE,delta=1
    57                           	psect	intsave_regs,global,class=BIGRAM,space=1,delta=1,noexec
    58                           	psect	text47,global,reloc=2,class=CODE,delta=1
    59                           	psect	rparam,global,class=COMRAM,space=1,delta=1,noexec
    60                           	psect	temp,global,ovrld,common,class=COMRAM,space=1,delta=1
    61                           	psect	idloc,global,abs,ovrld,class=IDLOC,space=5,delta=1,noexec
    62                           	psect	config,global,abs,ovrld,class=CONFIG,space=4,delta=1,noexec
    63  0000                     
    64                           ; Version 2.35
    65                           ; Generated 05/05/2021 GMT
    66                           ; 
    67                           ; Copyright © 2021, Microchip Technology Inc. and its subsidiaries ("Microchip")
    68                           ; All rights reserved.
    69                           ; 
    70                           ; This software is developed by Microchip Technology Inc. and its subsidiaries ("Microch
      +                          ip").
    71                           ; 
    72                           ; Redistribution and use in source and binary forms, with or without modification, are
    73                           ; permitted provided that the following conditions are met:
    74                           ; 
    75                           ;     1. Redistributions of source code must retain the above copyright notice, this lis
      +                          t of
    76                           ;        conditions and the following disclaimer.
    77                           ; 
    78                           ;     2. Redistributions in binary form must reproduce the above copyright notice, this 
      +                          list
    79                           ;        of conditions and the following disclaimer in the documentation and/or other
    80                           ;        materials provided with the distribution. Publication is not required when
    81                           ;        this file is used in an embedded application.
    82                           ; 
    83                           ;     3. Microchip's name may not be used to endorse or promote products derived from th
      +                          is
    84                           ;        software without specific prior written permission.
    85                           ; 
    86                           ; THIS SOFTWARE IS PROVIDED BY MICROCHIP "AS IS" AND ANY EXPRESS OR IMPLIED WARRANTIES,
    87                           ; INCLUDING, BUT NOT LIMITED TO, THE IMPLIED WARRANTIES OF MERCHANTABILITY AND FITNESS F
      +                          OR
    88                           ; PURPOSE ARE DISCLAIMED.  IN NO EVENT SHALL MICROCHIP BE LIABLE FOR ANY DIRECT, INDIREC
      +                          T,
    89                           ; INCIDENTAL, SPECIAL, EXEMPLARY, OR CONSEQUENTIAL DAMAGES (INCLUDING BUT NOT LIMITED TO
    90                           ; PROCUREMENT OF SUBSTITUTE GOODS OR SERVICES; LOSS OF USE, DATA OR PROFITS; OR BUSINESS
    91                           ; INTERRUPTION) HOWSOEVER CAUSED AND ON ANY THEORY OF LIABILITY, WHETHER IN CONTRACT, ST
      +                          RICT
    92                           ; LIABILITY, OR TORT (INCLUDING NEGLIGENCE OR OTHERWISE) ARISING IN ANY WAY OUT OF THE U
      +                          SE OF
    93                           ; THIS SOFTWARE, EVEN IF ADVISED OF THE POSSIBILITY OF SUCH DAMAGE.
    94                           ; 
    95                           ; 
    96                           ; Code-generator required, PIC18F26K40 Definitions
    97                           ; 
    98                           ; SFR Addresses
    99  0000                     
   100 ;; Function _EUSART1_DefaultFramingErrorHandler is unused but had its address taken
   101  0000                     
   102 ;; Function _EUSART1_DefaultOverrunErrorHandler is unused but had its address taken
   103  0000                     
   104 ;; Function _EUSART1_DefaultErrorHandler is unused but had its address taken
   105  0000                     
   106                           	psect	smallconst
   107  000F00                     __psmallconst:
   108                           	callstack 0
   109  000F00  00                 	db	0
   110  000F01                     _dpowers:
   111                           	callstack 0
   112  000F01  0001               	dw	1
   113  000F03  000A               	dw	10
   114  000F05  0064               	dw	100
   115  000F07  03E8               	dw	1000
   116  000F09  2710               	dw	10000
   117  000F0B                     __end_of_dpowers:
   118                           	callstack 0
   119  0000                     _TX1REG	set	3994
   120  0000                     _SP1BRGH	set	3996
   121  0000                     _TX1STA	set	3998
   122  0000                     _T2CON	set	4029
   123  0000                     _T0CON0	set	4053
   124  0000                     _ADERRL	set	3950
   125  0000                     _ADERRH	set	3951
   126  0000                     _ADPREVL	set	3937
   127  0000                     _ADPREVH	set	3938
   128  0000                     _ADFLTRL	set	3954
   129  0000                     _ADFLTRH	set	3955
   130  0000                     _ADACCL	set	3952
   131  0000                     _ADACCH	set	3953
   132  0000                     _ADCNT	set	3943
   133  0000                     _ADRESL	set	3939
   134  0000                     _ADRESH	set	3940
   135  0000                     _ADACQ	set	3932
   136  0000                     _ADCON0	set	3936
   137  0000                     _ADCLK	set	3927
   138  0000                     _ADSTAT	set	3941
   139  0000                     _ADCON3	set	3931
   140  0000                     _ADCON2	set	3930
   141  0000                     _ADPRE	set	3934
   142  0000                     _ADSTPTH	set	3945
   143  0000                     _ADUTHH	set	3949
   144  0000                     _ADUTHL	set	3948
   145  0000                     _ADLTHH	set	3947
   146  0000                     _IOCBPbits	set	3860
   147  0000                     _IOCBNbits	set	3859
   148  0000                     _IOCBFbits	set	3858
   149  0000                     _INLVLB	set	3861
   150  0000                     _SLRCONB	set	3862
   151  0000                     _ODCONB	set	3863
   152  0000                     _WPUB	set	3864
   153  0000                     _OSCTUNE	set	3805
   154  0000                     _OSCFRQ	set	3806
   155  000F0B                     STR_1:
   156  000F0B  23                 	db	35
   157  000F0C  25                 	db	37
   158  000F0D  64                 	db	100	;'d'
   159  000F0E  00                 	db	0
   160  000F0F                     STR_2:
   161  000F0F  2A                 	db	42
   162  000F10  25                 	db	37
   163  000F11  64                 	db	100	;'d'
   164  000F12  00                 	db	0
   165  000F13  00                 	db	0	; dummy byte at the end
   166  0000                     
   167                           	psect	nvCOMRAM
   168  00003C                     __pnvCOMRAM:
   169                           	callstack 0
   170  00003C                     _EUSART1_ErrorHandler:
   171                           	callstack 0
   172  00003C                     	ds	2
   173  00003E                     _EUSART1_OverrunErrorHandler:
   174                           	callstack 0
   175  00003E                     	ds	2
   176  000040                     _EUSART1_FramingErrorHandler:
   177                           	callstack 0
   178  000040                     	ds	2
   179  000042                     _TMR0_InterruptHandler:
   180                           	callstack 0
   181  000042                     	ds	2
   182  000044                     _timer0ReloadVal16bit:
   183                           	callstack 0
   184  000044                     	ds	2
   185  000046                     _IOCBF4_InterruptHandler:
   186                           	callstack 0
   187  000046                     	ds	2
   188  0000                     _ADCON1bits	set	3929
   189  0000                     _ADCON2bits	set	3930
   190  0000                     _ADCON3bits	set	3931
   191  0000                     _LATCbits	set	3973
   192  0000                     _LATAbits	set	3971
   193  0000                     _RC1STAbits	set	3997
   194  0000                     _TX1STAbits	set	3998
   195  0000                     _PR2	set	4028
   196  0000                     _TMR2	set	4027
   197  0000                     _T2CONbits	set	4029
   198  0000                     _T2RSTbits	set	4032
   199  0000                     _T2HLTbits	set	4030
   200  0000                     _CCP2CONbits	set	4008
   201  0000                     _CCP1CONbits	set	4012
   202  0000                     _T0CON0bits	set	4053
   203  0000                     _ADSTATbits	set	3941
   204  0000                     _ADCON0bits	set	3936
   205  0000                     _RX1PPS	set	3765
   206  0000                     _PIE0bits	set	3778
   207  0000                     _OSCCON1	set	3800
   208  0000                     _OSCCON3	set	3802
   209  0000                     _OSCEN	set	3804
   210  0000                     _PMD0	set	3809
   211  0000                     _RB5PPS	set	3828
   212  0000                     _INLVLA	set	3853
   213  0000                     _SLRCONA	set	3854
   214  0000                     _ODCONA	set	3855
   215  0000                     _WPUA	set	3856
   216  0000                     _ANSELA	set	3857
   217  0000                     _ANSELB	set	3865
   218  0000                     _ANSELC	set	3873
   219  0000                     _LATA	set	3971
   220  0000                     _PMD5	set	3814
   221  0000                     _PMD4	set	3813
   222  0000                     _PMD3	set	3812
   223  0000                     _PMD2	set	3811
   224  0000                     _PMD1	set	3810
   225  0000                     _TRISA	set	3976
   226  0000                     _LATC	set	3973
   227  0000                     _LATB	set	3972
   228  0000                     _RC1REG	set	3993
   229  0000                     _SP1BRGL	set	3995
   230  0000                     _RC1STA	set	3997
   231  0000                     _BAUD1CON	set	3999
   232  0000                     _CCPR2L	set	4006
   233  0000                     _CCPR2H	set	4007
   234  0000                     _CCP2CON	set	4008
   235  0000                     _CCPR1L	set	4010
   236  0000                     _CCPR1H	set	4011
   237  0000                     _CCP1CON	set	4012
   238  0000                     _TMR0L	set	4051
   239  0000                     _TMR0H	set	4052
   240  0000                     _T0CON1	set	4054
   241  0000                     _TRISC	set	3978
   242  0000                     _TRISB	set	3977
   243  0000                     _INLVLE	set	3882
   244  0000                     _WPUE	set	3885
   245  0000                     _INLVLC	set	3869
   246  0000                     _SLRCONC	set	3870
   247  0000                     _ODCONC	set	3871
   248  0000                     _WPUC	set	3872
   249  0000                     _DAC1CON0	set	3891
   250  0000                     _ADACT	set	3926
   251  0000                     _ADREF	set	3928
   252  0000                     _ADCON1	set	3929
   253  0000                     _ADCAP	set	3933
   254  0000                     _ADPCH	set	3935
   255  0000                     _ADRPT	set	3942
   256  0000                     _ADSTPTL	set	3944
   257  0000                     _ADLTHL	set	3946
   258  0000                     _PIR0bits	set	3786
   259  0000                     _RC6PPS	set	3837
   260  0000                     _DAC1CON1	set	3892
   261  0000                     _INTCONbits	set	4082
   262  0000                     _PIR3bits	set	3789
   263  0000                     _PIR4bits	set	3790
   264  0000                     _CCPTMRSbits	set	4014
   265  0000                     _T2TMR	set	4027
   266  0000                     _T2PR	set	4028
   267  0000                     _T2HLT	set	4030
   268  0000                     _T2CLKCON	set	4031
   269  0000                     _T2RST	set	4032
   270                           
   271                           ; #config settings
   272                           
   273                           	psect	cinit
   274  001D94                     __pcinit:
   275                           	callstack 0
   276  001D94                     start_initialization:
   277                           	callstack 0
   278  001D94                     __initialization:
   279                           	callstack 0
   280                           
   281                           ; Clear objects allocated to COMRAM (5 bytes)
   282  001D94  6A4C               	clrf	(__pbssCOMRAM+4)& (0+255),c
   283  001D96  6A4B               	clrf	(__pbssCOMRAM+3)& (0+255),c
   284  001D98  6A4A               	clrf	(__pbssCOMRAM+2)& (0+255),c
   285  001D9A  6A49               	clrf	(__pbssCOMRAM+1)& (0+255),c
   286  001D9C  6A48               	clrf	__pbssCOMRAM& (0+255),c
   287  001D9E                     end_of_initialization:
   288                           	callstack 0
   289  001D9E                     __end_of__initialization:
   290                           	callstack 0
   291  001D9E  904D               	bcf	int$flags,0,c	;clear compiler interrupt flag (level 1)
   292  001DA0  924D               	bcf	int$flags,1,c	;clear compiler interrupt flag (level 2)
   293  001DA2  0100               	movlb	0
   294  001DA4  EF44  F00D         	goto	_main	;jump to C main() function
   295                           
   296                           	psect	bssCOMRAM
   297  000048                     __pbssCOMRAM:
   298                           	callstack 0
   299  000048                     _luminosidade:
   300                           	callstack 0
   301  000048                     	ds	2
   302  00004A                     _temperatura:
   303                           	callstack 0
   304  00004A                     	ds	2
   305  00004C                     _eusart1RxLastError:
   306                           	callstack 0
   307  00004C                     	ds	1
   308                           
   309                           	psect	cstackCOMRAM
   310  000001                     __pcstackCOMRAM:
   311                           	callstack 0
   312  000001                     
   313                           ; 2 bytes @ 0x0
   314  000001                     	ds	2
   315  000003                     ??i2_Alarme_Temperatura:
   316  000003                     ??i2_Alarme_Luminosidade:
   317                           
   318                           ; 1 bytes @ 0x2
   319  000003                     	ds	2
   320  000005                     ??_INTERRUPT_InterruptManager:
   321  000005                     
   322                           ; 1 bytes @ 0x4
   323  000005                     	ds	2
   324  000007                     ?_ADCC_GetConversionResult:
   325                           	callstack 0
   326  000007                     ?___lwdiv:
   327                           	callstack 0
   328  000007                     ?___xxtofl:
   329                           	callstack 0
   330  000007                     ADCC_StartConversion@channel:
   331                           	callstack 0
   332  000007                     EUSART1_Write@txData:
   333                           	callstack 0
   334  000007                     IOCBF4_SetInterruptHandler@InterruptHandler:
   335                           	callstack 0
   336  000007                     TMR0_SetInterruptHandler@InterruptHandler:
   337                           	callstack 0
   338  000007                     PWM1_LoadDutyValue@dutyValue:
   339                           	callstack 0
   340  000007                     EUSART1_SetFramingErrorHandler@interruptHandler:
   341                           	callstack 0
   342  000007                     EUSART1_SetOverrunErrorHandler@interruptHandler:
   343                           	callstack 0
   344  000007                     EUSART1_SetErrorHandler@interruptHandler:
   345                           	callstack 0
   346  000007                     ___lwdiv@dividend:
   347                           	callstack 0
   348  000007                     ___xxtofl@val:
   349                           	callstack 0
   350                           
   351                           ; 4 bytes @ 0x6
   352  000007                     	ds	1
   353  000008                     putch@txData:
   354                           	callstack 0
   355                           
   356                           ; 1 bytes @ 0x7
   357  000008                     	ds	1
   358  000009                     ??_TMR0_Initialize:
   359  000009                     ??_Alarme_Temperatura:
   360  000009                     ??_Alarme_Luminosidade:
   361  000009                     ??_ADCC_GetConversionResult:
   362  000009                     ___lwdiv@divisor:
   363                           	callstack 0
   364                           
   365                           ; 2 bytes @ 0x8
   366  000009                     	ds	2
   367  00000B                     ??___xxtofl:
   368  00000B                     ___lwdiv@quotient:
   369                           	callstack 0
   370                           
   371                           ; 2 bytes @ 0xA
   372  00000B                     	ds	2
   373  00000D                     ___lwdiv@counter:
   374                           	callstack 0
   375                           
   376                           ; 1 bytes @ 0xC
   377  00000D                     	ds	1
   378  00000E                     ?___lwmod:
   379                           	callstack 0
   380  00000E                     ___lwmod@dividend:
   381                           	callstack 0
   382                           
   383                           ; 2 bytes @ 0xD
   384  00000E                     	ds	1
   385  00000F                     ___xxtofl@sign:
   386                           	callstack 0
   387                           
   388                           ; 1 bytes @ 0xE
   389  00000F                     	ds	1
   390  000010                     ___xxtofl@exp:
   391                           	callstack 0
   392  000010                     ___lwmod@divisor:
   393                           	callstack 0
   394                           
   395                           ; 2 bytes @ 0xF
   396  000010                     	ds	1
   397  000011                     ___xxtofl@arg:
   398                           	callstack 0
   399                           
   400                           ; 4 bytes @ 0x10
   401  000011                     	ds	1
   402  000012                     ___lwmod@counter:
   403                           	callstack 0
   404                           
   405                           ; 1 bytes @ 0x11
   406  000012                     	ds	1
   407  000013                     ?_printf:
   408                           	callstack 0
   409  000013                     printf@f:
   410                           	callstack 0
   411                           
   412                           ; 2 bytes @ 0x12
   413  000013                     	ds	2
   414  000015                     ?___fldiv:
   415                           	callstack 0
   416  000015                     ___fldiv@b:
   417                           	callstack 0
   418                           
   419                           ; 4 bytes @ 0x14
   420  000015                     	ds	2
   421  000017                     ??_printf:
   422                           
   423                           ; 1 bytes @ 0x16
   424  000017                     	ds	1
   425  000018                     printf@ap:
   426                           	callstack 0
   427                           
   428                           ; 2 bytes @ 0x17
   429  000018                     	ds	1
   430  000019                     ___fldiv@a:
   431                           	callstack 0
   432                           
   433                           ; 4 bytes @ 0x18
   434  000019                     	ds	1
   435  00001A                     printf@flag:
   436                           	callstack 0
   437                           
   438                           ; 1 bytes @ 0x19
   439  00001A                     	ds	1
   440  00001B                     printf@prec:
   441                           	callstack 0
   442                           
   443                           ; 1 bytes @ 0x1A
   444  00001B                     	ds	1
   445  00001C                     printf@val:
   446                           	callstack 0
   447                           
   448                           ; 2 bytes @ 0x1B
   449  00001C                     	ds	1
   450  00001D                     ??___fldiv:
   451                           
   452                           ; 1 bytes @ 0x1C
   453  00001D                     	ds	1
   454  00001E                     printf@c:
   455                           	callstack 0
   456                           
   457                           ; 1 bytes @ 0x1D
   458  00001E                     	ds	1
   459  00001F                     Luminosidade@luz:
   460                           	callstack 0
   461                           
   462                           ; 2 bytes @ 0x1E
   463  00001F                     	ds	2
   464  000021                     ___fldiv@rem:
   465                           	callstack 0
   466                           
   467                           ; 4 bytes @ 0x20
   468  000021                     	ds	4
   469  000025                     ___fldiv@sign:
   470                           	callstack 0
   471                           
   472                           ; 1 bytes @ 0x24
   473  000025                     	ds	1
   474  000026                     ___fldiv@new_exp:
   475                           	callstack 0
   476                           
   477                           ; 2 bytes @ 0x25
   478  000026                     	ds	2
   479  000028                     ___fldiv@grs:
   480                           	callstack 0
   481                           
   482                           ; 4 bytes @ 0x27
   483  000028                     	ds	4
   484  00002C                     ___fldiv@bexp:
   485                           	callstack 0
   486                           
   487                           ; 1 bytes @ 0x2B
   488  00002C                     	ds	1
   489  00002D                     ___fldiv@aexp:
   490                           	callstack 0
   491                           
   492                           ; 1 bytes @ 0x2C
   493  00002D                     	ds	1
   494  00002E                     ?___fltol:
   495                           	callstack 0
   496  00002E                     ___fltol@f1:
   497                           	callstack 0
   498                           
   499                           ; 4 bytes @ 0x2D
   500  00002E                     	ds	4
   501  000032                     ??___fltol:
   502                           
   503                           ; 1 bytes @ 0x31
   504  000032                     	ds	4
   505  000036                     ___fltol@sign1:
   506                           	callstack 0
   507                           
   508                           ; 1 bytes @ 0x35
   509  000036                     	ds	1
   510  000037                     ___fltol@exp1:
   511                           	callstack 0
   512                           
   513                           ; 1 bytes @ 0x36
   514  000037                     	ds	1
   515  000038                     Temperatura@sensor_value:
   516                           	callstack 0
   517                           
   518                           ; 2 bytes @ 0x37
   519  000038                     	ds	2
   520  00003A                     ??_main:
   521                           
   522                           ; 1 bytes @ 0x39
   523  00003A                     	ds	1
   524  00003B                     main@ch:
   525                           	callstack 0
   526                           
   527                           ; 1 bytes @ 0x3A
   528  00003B                     	ds	1
   529                           
   530 ;;
   531 ;;Main: autosize = 0, tempsize = 1, incstack = 0, save=0
   532 ;;
   533 ;; *************** function _main *****************
   534 ;; Defined at:
   535 ;;		line 130 in file "main.c"
   536 ;; Parameters:    Size  Location     Type
   537 ;;		None
   538 ;; Auto vars:     Size  Location     Type
   539 ;;  ch              1   58[COMRAM] unsigned char 
   540 ;; Return value:  Size  Location     Type
   541 ;;                  1    wreg      void 
   542 ;; Registers used:
   543 ;;		wreg, fsr2l, fsr2h, status,2, status,0, tblptrl, tblptrh, tblptru, prodl, prodh, cstack
   544 ;; Tracked objects:
   545 ;;		On entry : 0/0
   546 ;;		On exit  : 0/0
   547 ;;		Unchanged: 0/0
   548 ;; Data sizes:     COMRAM   BANK0   BANK1   BANK2   BANK3   BANK4   BANK5   BANK6   BANK7   BANK8   BANK9  BANK10  BANK1
      +1  BANK12  BANK13  BANK14
   549 ;;      Params:         0       0       0       0       0       0       0       0       0       0       0       0       
      +0       0       0       0
   550 ;;      Locals:         1       0       0       0       0       0       0       0       0       0       0       0       
      +0       0       0       0
   551 ;;      Temps:          1       0       0       0       0       0       0       0       0       0       0       0       
      +0       0       0       0
   552 ;;      Totals:         2       0       0       0       0       0       0       0       0       0       0       0       
      +0       0       0       0
   553 ;;Total ram usage:        2 bytes
   554 ;; Hardware stack levels required when called: 9
   555 ;; This function calls:
   556 ;;		_ADCC_Initialize
   557 ;;		_Alarme_Luminosidade
   558 ;;		_Alarme_Temperatura
   559 ;;		_EUSART1_Read
   560 ;;		_EUSART1_Write
   561 ;;		_EUSART1_is_rx_ready
   562 ;;		_Luminosidade
   563 ;;		_SYSTEM_Initialize
   564 ;;		_TMR0_SetInterruptHandler
   565 ;;		_Temperatura
   566 ;; This function is called by:
   567 ;;		Startup code after reset
   568 ;; This function uses a non-reentrant model
   569 ;;
   570                           
   571                           	psect	text0
   572  001A88                     __ptext0:
   573                           	callstack 0
   574  001A88                     _main:
   575                           	callstack 22
   576  001A88                     
   577                           ;main.c: 132: SYSTEM_Initialize();
   578  001A88  EC27  F00E         	call	_SYSTEM_Initialize	;wreg free
   579  001A8C                     
   580                           ;main.c: 133: ADCC_Initialize();
   581  001A8C  EC70  F00D         	call	_ADCC_Initialize	;wreg free
   582  001A90                     
   583                           ;main.c: 134: TMR0_SetInterruptHandler(myTimer0ISR);
   584  001A90  0E36               	movlw	low _myTimer0ISR
   585  001A92  6E07               	movwf	TMR0_SetInterruptHandler@InterruptHandler^0,c
   586  001A94  0E1E               	movlw	high _myTimer0ISR
   587  001A96  6E08               	movwf	(TMR0_SetInterruptHandler@InterruptHandler+1)^0,c
   588  001A98  ECFD  F00E         	call	_TMR0_SetInterruptHandler	;wreg free
   589  001A9C                     
   590                           ;main.c: 136: (INTCONbits.GIE = 1);
   591  001A9C  8EF2               	bsf	242,7,c	;volatile
   592  001A9E                     
   593                           ;main.c: 137: (INTCONbits.PEIE = 1);
   594  001A9E  8CF2               	bsf	242,6,c	;volatile
   595  001AA0                     l2731:
   596                           
   597                           ;main.c: 143: Alarme_Temperatura();
   598  001AA0  ECC9  F00B         	call	_Alarme_Temperatura	;wreg free
   599  001AA4                     
   600                           ;main.c: 144: Alarme_Luminosidade();
   601  001AA4  ECE8  F00C         	call	_Alarme_Luminosidade	;wreg free
   602  001AA8                     
   603                           ;main.c: 146: Temperatura();
   604  001AA8  EC77  F00B         	call	_Temperatura	;wreg free
   605  001AAC                     
   606                           ;main.c: 147: Luminosidade();
   607  001AAC  EC98  F00D         	call	_Luminosidade	;wreg free
   608                           
   609                           ;main.c: 149: while ((EUSART1_is_rx_ready())) {
   610  001AB0  EF62  F00D         	goto	l2743
   611  001AB4                     l2739:
   612                           
   613                           ;main.c: 150: uint8_t ch = EUSART1_Read() - 1;
   614  001AB4  EC54  F00E         	call	_EUSART1_Read	;wreg free
   615  001AB8  6E3A               	movwf	??_main^0,c
   616  001ABA  043A               	decf	??_main^0,w,c
   617  001ABC  6E3B               	movwf	main@ch^0,c
   618  001ABE                     
   619                           ;main.c: 151: EUSART1_Write(ch);
   620  001ABE  503B               	movf	main@ch^0,w,c
   621  001AC0  EC92  F00E         	call	_EUSART1_Write
   622  001AC4                     l2743:
   623  001AC4  ECB4  F00E         	call	_EUSART1_is_rx_ready	;wreg free
   624  001AC8  0900               	iorlw	0
   625  001ACA  A4D8               	btfss	status,2,c
   626  001ACC  EF6A  F00D         	goto	u1631
   627  001AD0  EF6C  F00D         	goto	u1630
   628  001AD4                     u1631:
   629  001AD4  EF5A  F00D         	goto	l2739
   630  001AD8                     u1630:
   631  001AD8  EF50  F00D         	goto	l2731
   632  001ADC  EF35  F000         	goto	start
   633  001AE0                     __end_of_main:
   634                           	callstack 0
   635                           
   636 ;; *************** function _Temperatura *****************
   637 ;; Defined at:
   638 ;;		line 61 in file "main.c"
   639 ;; Parameters:    Size  Location     Type
   640 ;;		None
   641 ;; Auto vars:     Size  Location     Type
   642 ;;  sensor_value    2   55[COMRAM] unsigned int 
   643 ;; Return value:  Size  Location     Type
   644 ;;                  1    wreg      void 
   645 ;; Registers used:
   646 ;;		wreg, fsr2l, fsr2h, status,2, status,0, tblptrl, tblptrh, tblptru, prodl, prodh, cstack
   647 ;; Tracked objects:
   648 ;;		On entry : 0/0
   649 ;;		On exit  : 0/0
   650 ;;		Unchanged: 0/0
   651 ;; Data sizes:     COMRAM   BANK0   BANK1   BANK2   BANK3   BANK4   BANK5   BANK6   BANK7   BANK8   BANK9  BANK10  BANK1
      +1  BANK12  BANK13  BANK14
   652 ;;      Params:         0       0       0       0       0       0       0       0       0       0       0       0       
      +0       0       0       0
   653 ;;      Locals:         2       0       0       0       0       0       0       0       0       0       0       0       
      +0       0       0       0
   654 ;;      Temps:          0       0       0       0       0       0       0       0       0       0       0       0       
      +0       0       0       0
   655 ;;      Totals:         2       0       0       0       0       0       0       0       0       0       0       0       
      +0       0       0       0
   656 ;;Total ram usage:        2 bytes
   657 ;; Hardware stack levels used: 1
   658 ;; Hardware stack levels required when called: 8
   659 ;; This function calls:
   660 ;;		_ADCC_DischargeSampleCapacitor
   661 ;;		_ADCC_GetConversionResult
   662 ;;		_ADCC_IsConversionDone
   663 ;;		_ADCC_StartConversion
   664 ;;		_PWM1_LoadDutyValue
   665 ;;		___fldiv
   666 ;;		___fltol
   667 ;;		___xxtofl
   668 ;;		_printf
   669 ;; This function is called by:
   670 ;;		_main
   671 ;; This function uses a non-reentrant model
   672 ;;
   673                           
   674                           	psect	text1
   675  0016EE                     __ptext1:
   676                           	callstack 0
   677  0016EE                     _Temperatura:
   678                           	callstack 22
   679  0016EE                     
   680                           ;main.c: 67: ADCC_DischargeSampleCapacitor();
   681  0016EE  EC20  F00F         	call	_ADCC_DischargeSampleCapacitor	;wreg free
   682  0016F2                     
   683                           ;main.c: 68: ADCC_StartConversion(Temp_Sensor);
   684  0016F2  0E01               	movlw	1
   685  0016F4  ECF7  F00E         	call	_ADCC_StartConversion
   686  0016F8                     
   687                           ;main.c: 69: PWM1_LoadDutyValue(149);
   688  0016F8  0E00               	movlw	0
   689  0016FA  6E08               	movwf	(PWM1_LoadDutyValue@dutyValue+1)^0,c
   690  0016FC  0E95               	movlw	149
   691  0016FE  6E07               	movwf	PWM1_LoadDutyValue@dutyValue^0,c
   692  001700  EC10  F00E         	call	_PWM1_LoadDutyValue	;wreg free
   693  001704                     l2693:
   694  001704  ECD4  F00E         	call	_ADCC_IsConversionDone	;wreg free
   695  001708  0900               	iorlw	0
   696  00170A  B4D8               	btfsc	status,2,c
   697  00170C  EF8A  F00B         	goto	u1571
   698  001710  EF8C  F00B         	goto	u1570
   699  001714                     u1571:
   700  001714  EF82  F00B         	goto	l2693
   701  001718                     u1570:
   702  001718                     
   703                           ;main.c: 71: };main.c: 73: adc_result_t sensor_value = ADCC_GetConversionResult();
   704  001718  ECDE  F00E         	call	_ADCC_GetConversionResult	;wreg free
   705  00171C  C007  F038         	movff	?_ADCC_GetConversionResult,Temperatura@sensor_value
   706  001720  C008  F039         	movff	?_ADCC_GetConversionResult+1,Temperatura@sensor_value+1
   707                           
   708                           ;main.c: 74: temperatura = (int) sensor_value / 20.46;
   709  001724  0E14               	movlw	20
   710  001726  6E19               	movwf	___fldiv@a^0,c
   711  001728  0EAE               	movlw	174
   712  00172A  6E1A               	movwf	(___fldiv@a+1)^0,c
   713  00172C  0EA3               	movlw	163
   714  00172E  6E1B               	movwf	(___fldiv@a+2)^0,c
   715  001730  0E41               	movlw	65
   716  001732  6E1C               	movwf	(___fldiv@a+3)^0,c
   717  001734  C038  F007         	movff	Temperatura@sensor_value,___xxtofl@val
   718  001738  C039  F008         	movff	Temperatura@sensor_value+1,___xxtofl@val+1
   719  00173C  0E00               	movlw	0
   720  00173E  BE08               	btfsc	(___xxtofl@val+1)^0,7,c
   721  001740  0EFF               	movlw	-1
   722  001742  6E09               	movwf	(___xxtofl@val+2)^0,c
   723  001744  6E0A               	movwf	(___xxtofl@val+3)^0,c
   724  001746  0E01               	movlw	1
   725  001748  EC57  F009         	call	___xxtofl
   726  00174C  C007  F015         	movff	?___xxtofl,___fldiv@b
   727  001750  C008  F016         	movff	?___xxtofl+1,___fldiv@b+1
   728  001754  C009  F017         	movff	?___xxtofl+2,___fldiv@b+2
   729  001758  C00A  F018         	movff	?___xxtofl+3,___fldiv@b+3
   730  00175C  EC8A  F007         	call	___fldiv	;wreg free
   731  001760  C015  F02E         	movff	?___fldiv,___fltol@f1
   732  001764  C016  F02F         	movff	?___fldiv+1,___fltol@f1+1
   733  001768  C017  F030         	movff	?___fldiv+2,___fltol@f1+2
   734  00176C  C018  F031         	movff	?___fldiv+3,___fltol@f1+3
   735  001770  ECF4  F00A         	call	___fltol	;wreg free
   736  001774  C02E  F04A         	movff	?___fltol,_temperatura
   737  001778  C02F  F04B         	movff	?___fltol+1,_temperatura+1
   738  00177C                     
   739                           ;main.c: 75: printf("#%d", temperatura);
   740  00177C  0E0B               	movlw	low STR_1
   741  00177E  6E13               	movwf	printf@f^0,c
   742  001780  0E0F               	movlw	high STR_1
   743  001782  6E14               	movwf	(printf@f+1)^0,c
   744  001784  C04A  F015         	movff	_temperatura,?_printf+2
   745  001788  C04B  F016         	movff	_temperatura+1,?_printf+3
   746  00178C  EC31  F00A         	call	_printf	;wreg free
   747  001790  0012               	return		;funcret
   748  001792                     __end_of_Temperatura:
   749                           	callstack 0
   750                           
   751 ;; *************** function ___xxtofl *****************
   752 ;; Defined at:
   753 ;;		line 10 in file "C:\Program Files\Microchip\xc8\v2.36\pic\sources\c90\common\xxtofl.c"
   754 ;; Parameters:    Size  Location     Type
   755 ;;  sign            1    wreg     unsigned char 
   756 ;;  val             4    6[COMRAM] long 
   757 ;; Auto vars:     Size  Location     Type
   758 ;;  sign            1   14[COMRAM] unsigned char 
   759 ;;  arg             4   16[COMRAM] unsigned long 
   760 ;;  exp             1   15[COMRAM] unsigned char 
   761 ;; Return value:  Size  Location     Type
   762 ;;                  4    6[COMRAM] unsigned char 
   763 ;; Registers used:
   764 ;;		wreg, status,2, status,0
   765 ;; Tracked objects:
   766 ;;		On entry : 0/0
   767 ;;		On exit  : 0/0
   768 ;;		Unchanged: 0/0
   769 ;; Data sizes:     COMRAM   BANK0   BANK1   BANK2   BANK3   BANK4   BANK5   BANK6   BANK7   BANK8   BANK9  BANK10  BANK1
      +1  BANK12  BANK13  BANK14
   770 ;;      Params:         4       0       0       0       0       0       0       0       0       0       0       0       
      +0       0       0       0
   771 ;;      Locals:         6       0       0       0       0       0       0       0       0       0       0       0       
      +0       0       0       0
   772 ;;      Temps:          4       0       0       0       0       0       0       0       0       0       0       0       
      +0       0       0       0
   773 ;;      Totals:        14       0       0       0       0       0       0       0       0       0       0       0       
      +0       0       0       0
   774 ;;Total ram usage:       14 bytes
   775 ;; Hardware stack levels used: 1
   776 ;; Hardware stack levels required when called: 5
   777 ;; This function calls:
   778 ;;		Nothing
   779 ;; This function is called by:
   780 ;;		_Temperatura
   781 ;; This function uses a non-reentrant model
   782 ;;
   783                           
   784                           	psect	text2
   785  0012AE                     __ptext2:
   786                           	callstack 0
   787  0012AE                     ___xxtofl:
   788                           	callstack 24
   789                           
   790                           ;incstack = 0
   791                           ;___xxtofl@sign stored from wreg
   792  0012AE  6E0F               	movwf	___xxtofl@sign^0,c
   793  0012B0  500F               	movf	___xxtofl@sign^0,w,c
   794  0012B2  B4D8               	btfsc	status,2,c
   795  0012B4  EF5E  F009         	goto	u1421
   796  0012B8  EF60  F009         	goto	u1420
   797  0012BC                     u1421:
   798  0012BC  EF82  F009         	goto	l1355
   799  0012C0                     u1420:
   800  0012C0  BE0A               	btfsc	(___xxtofl@val+3)^0,7,c
   801  0012C2  EF67  F009         	goto	u1430
   802  0012C6  EF65  F009         	goto	u1431
   803  0012CA                     u1431:
   804  0012CA  EF82  F009         	goto	l1355
   805  0012CE                     u1430:
   806  0012CE  C007  F00B         	movff	___xxtofl@val,??___xxtofl
   807  0012D2  C008  F00C         	movff	___xxtofl@val+1,??___xxtofl+1
   808  0012D6  C009  F00D         	movff	___xxtofl@val+2,??___xxtofl+2
   809  0012DA  C00A  F00E         	movff	___xxtofl@val+3,??___xxtofl+3
   810  0012DE  1E0B               	comf	??___xxtofl^0,f,c
   811  0012E0  1E0C               	comf	(??___xxtofl+1)^0,f,c
   812  0012E2  1E0D               	comf	(??___xxtofl+2)^0,f,c
   813  0012E4  1E0E               	comf	(??___xxtofl+3)^0,f,c
   814  0012E6  2A0B               	incf	??___xxtofl^0,f,c
   815  0012E8  0E00               	movlw	0
   816  0012EA  220C               	addwfc	(??___xxtofl+1)^0,f,c
   817  0012EC  220D               	addwfc	(??___xxtofl+2)^0,f,c
   818  0012EE  220E               	addwfc	(??___xxtofl+3)^0,f,c
   819  0012F0  C00B  F011         	movff	??___xxtofl,___xxtofl@arg
   820  0012F4  C00C  F012         	movff	??___xxtofl+1,___xxtofl@arg+1
   821  0012F8  C00D  F013         	movff	??___xxtofl+2,___xxtofl@arg+2
   822  0012FC  C00E  F014         	movff	??___xxtofl+3,___xxtofl@arg+3
   823  001300  EF8A  F009         	goto	l2599
   824  001304                     l1355:
   825  001304  C007  F011         	movff	___xxtofl@val,___xxtofl@arg
   826  001308  C008  F012         	movff	___xxtofl@val+1,___xxtofl@arg+1
   827  00130C  C009  F013         	movff	___xxtofl@val+2,___xxtofl@arg+2
   828  001310  C00A  F014         	movff	___xxtofl@val+3,___xxtofl@arg+3
   829  001314                     l2599:
   830  001314  5007               	movf	___xxtofl@val^0,w,c
   831  001316  1008               	iorwf	(___xxtofl@val+1)^0,w,c
   832  001318  1009               	iorwf	(___xxtofl@val+2)^0,w,c
   833  00131A  100A               	iorwf	(___xxtofl@val+3)^0,w,c
   834  00131C  A4D8               	btfss	status,2,c
   835  00131E  EF93  F009         	goto	u1441
   836  001322  EF95  F009         	goto	u1440
   837  001326                     u1441:
   838  001326  EF9F  F009         	goto	l2605
   839  00132A                     u1440:
   840  00132A  0E00               	movlw	0
   841  00132C  6E07               	movwf	?___xxtofl^0,c
   842  00132E  0E00               	movlw	0
   843  001330  6E08               	movwf	(?___xxtofl+1)^0,c
   844  001332  0E00               	movlw	0
   845  001334  6E09               	movwf	(?___xxtofl+2)^0,c
   846  001336  0E00               	movlw	0
   847  001338  6E0A               	movwf	(?___xxtofl+3)^0,c
   848  00133A  EF30  F00A         	goto	l1358
   849  00133E                     l2605:
   850  00133E  0E96               	movlw	150
   851  001340  6E10               	movwf	___xxtofl@exp^0,c
   852  001342  EFA9  F009         	goto	l2609
   853  001346                     l2607:
   854  001346  2A10               	incf	___xxtofl@exp^0,f,c
   855  001348  90D8               	bcf	status,0,c
   856  00134A  3214               	rrcf	(___xxtofl@arg+3)^0,f,c
   857  00134C  3213               	rrcf	(___xxtofl@arg+2)^0,f,c
   858  00134E  3212               	rrcf	(___xxtofl@arg+1)^0,f,c
   859  001350  3211               	rrcf	___xxtofl@arg^0,f,c
   860  001352                     l2609:
   861  001352  0E00               	movlw	0
   862  001354  1411               	andwf	___xxtofl@arg^0,w,c
   863  001356  6E0B               	movwf	??___xxtofl^0,c
   864  001358  0E00               	movlw	0
   865  00135A  1412               	andwf	(___xxtofl@arg+1)^0,w,c
   866  00135C  6E0C               	movwf	(??___xxtofl+1)^0,c
   867  00135E  0E00               	movlw	0
   868  001360  1413               	andwf	(___xxtofl@arg+2)^0,w,c
   869  001362  6E0D               	movwf	(??___xxtofl+2)^0,c
   870  001364  0EFE               	movlw	254
   871  001366  1414               	andwf	(___xxtofl@arg+3)^0,w,c
   872  001368  6E0E               	movwf	(??___xxtofl+3)^0,c
   873  00136A  500B               	movf	??___xxtofl^0,w,c
   874  00136C  100C               	iorwf	(??___xxtofl+1)^0,w,c
   875  00136E  100D               	iorwf	(??___xxtofl+2)^0,w,c
   876  001370  100E               	iorwf	(??___xxtofl+3)^0,w,c
   877  001372  A4D8               	btfss	status,2,c
   878  001374  EFBE  F009         	goto	u1451
   879  001378  EFC0  F009         	goto	u1450
   880  00137C                     u1451:
   881  00137C  EFA3  F009         	goto	l2607
   882  001380                     u1450:
   883  001380  EFCE  F009         	goto	l1362
   884  001384                     l2611:
   885  001384  2A10               	incf	___xxtofl@exp^0,f,c
   886  001386  0E01               	movlw	1
   887  001388  2611               	addwf	___xxtofl@arg^0,f,c
   888  00138A  0E00               	movlw	0
   889  00138C  2212               	addwfc	(___xxtofl@arg+1)^0,f,c
   890  00138E  2213               	addwfc	(___xxtofl@arg+2)^0,f,c
   891  001390  2214               	addwfc	(___xxtofl@arg+3)^0,f,c
   892  001392  90D8               	bcf	status,0,c
   893  001394  3214               	rrcf	(___xxtofl@arg+3)^0,f,c
   894  001396  3213               	rrcf	(___xxtofl@arg+2)^0,f,c
   895  001398  3212               	rrcf	(___xxtofl@arg+1)^0,f,c
   896  00139A  3211               	rrcf	___xxtofl@arg^0,f,c
   897  00139C                     l1362:
   898  00139C  0E00               	movlw	0
   899  00139E  1411               	andwf	___xxtofl@arg^0,w,c
   900  0013A0  6E0B               	movwf	??___xxtofl^0,c
   901  0013A2  0E00               	movlw	0
   902  0013A4  1412               	andwf	(___xxtofl@arg+1)^0,w,c
   903  0013A6  6E0C               	movwf	(??___xxtofl+1)^0,c
   904  0013A8  0E00               	movlw	0
   905  0013AA  1413               	andwf	(___xxtofl@arg+2)^0,w,c
   906  0013AC  6E0D               	movwf	(??___xxtofl+2)^0,c
   907  0013AE  0EFF               	movlw	255
   908  0013B0  1414               	andwf	(___xxtofl@arg+3)^0,w,c
   909  0013B2  6E0E               	movwf	(??___xxtofl+3)^0,c
   910  0013B4  500B               	movf	??___xxtofl^0,w,c
   911  0013B6  100C               	iorwf	(??___xxtofl+1)^0,w,c
   912  0013B8  100D               	iorwf	(??___xxtofl+2)^0,w,c
   913  0013BA  100E               	iorwf	(??___xxtofl+3)^0,w,c
   914  0013BC  A4D8               	btfss	status,2,c
   915  0013BE  EFE3  F009         	goto	u1461
   916  0013C2  EFE5  F009         	goto	u1460
   917  0013C6                     u1461:
   918  0013C6  EFC2  F009         	goto	l2611
   919  0013CA                     u1460:
   920  0013CA  EFED  F009         	goto	l2619
   921  0013CE                     l2617:
   922  0013CE  0610               	decf	___xxtofl@exp^0,f,c
   923  0013D0  90D8               	bcf	status,0,c
   924  0013D2  3611               	rlcf	___xxtofl@arg^0,f,c
   925  0013D4  3612               	rlcf	(___xxtofl@arg+1)^0,f,c
   926  0013D6  3613               	rlcf	(___xxtofl@arg+2)^0,f,c
   927  0013D8  3614               	rlcf	(___xxtofl@arg+3)^0,f,c
   928  0013DA                     l2619:
   929  0013DA  BE13               	btfsc	(___xxtofl@arg+2)^0,7,c
   930  0013DC  EFF2  F009         	goto	u1471
   931  0013E0  EFF4  F009         	goto	u1470
   932  0013E4                     u1471:
   933  0013E4  EFFC  F009         	goto	l1369
   934  0013E8                     u1470:
   935  0013E8  0E02               	movlw	2
   936  0013EA  6010               	cpfslt	___xxtofl@exp^0,c
   937  0013EC  EFFA  F009         	goto	u1481
   938  0013F0  EFFC  F009         	goto	u1480
   939  0013F4                     u1481:
   940  0013F4  EFE7  F009         	goto	l2617
   941  0013F8                     u1480:
   942  0013F8                     l1369:
   943  0013F8  B010               	btfsc	___xxtofl@exp^0,0,c
   944  0013FA  EF01  F00A         	goto	u1491
   945  0013FE  EF03  F00A         	goto	u1490
   946  001402                     u1491:
   947  001402  EF04  F00A         	goto	l2625
   948  001406                     u1490:
   949  001406  9E13               	bcf	(___xxtofl@arg+2)^0,7,c
   950  001408                     l2625:
   951  001408  90D8               	bcf	status,0,c
   952  00140A  3210               	rrcf	___xxtofl@exp^0,f,c
   953  00140C  C010  F00B         	movff	___xxtofl@exp,??___xxtofl
   954  001410  6A0C               	clrf	(??___xxtofl+1)^0,c
   955  001412  6A0D               	clrf	(??___xxtofl+2)^0,c
   956  001414  6A0E               	clrf	(??___xxtofl+3)^0,c
   957  001416  C00B  F00E         	movff	??___xxtofl,??___xxtofl+3
   958  00141A  6A0D               	clrf	(??___xxtofl+2)^0,c
   959  00141C  6A0C               	clrf	(??___xxtofl+1)^0,c
   960  00141E  6A0B               	clrf	??___xxtofl^0,c
   961  001420  500B               	movf	??___xxtofl^0,w,c
   962  001422  1211               	iorwf	___xxtofl@arg^0,f,c
   963  001424  500C               	movf	(??___xxtofl+1)^0,w,c
   964  001426  1212               	iorwf	(___xxtofl@arg+1)^0,f,c
   965  001428  500D               	movf	(??___xxtofl+2)^0,w,c
   966  00142A  1213               	iorwf	(___xxtofl@arg+2)^0,f,c
   967  00142C  500E               	movf	(??___xxtofl+3)^0,w,c
   968  00142E  1214               	iorwf	(___xxtofl@arg+3)^0,f,c
   969  001430  500F               	movf	___xxtofl@sign^0,w,c
   970  001432  B4D8               	btfsc	status,2,c
   971  001434  EF1E  F00A         	goto	u1501
   972  001438  EF20  F00A         	goto	u1500
   973  00143C                     u1501:
   974  00143C  EF28  F00A         	goto	l2635
   975  001440                     u1500:
   976  001440  BE0A               	btfsc	(___xxtofl@val+3)^0,7,c
   977  001442  EF27  F00A         	goto	u1510
   978  001446  EF25  F00A         	goto	u1511
   979  00144A                     u1511:
   980  00144A  EF28  F00A         	goto	l2635
   981  00144E                     u1510:
   982  00144E  8E14               	bsf	(___xxtofl@arg+3)^0,7,c
   983  001450                     l2635:
   984  001450  C011  F007         	movff	___xxtofl@arg,?___xxtofl
   985  001454  C012  F008         	movff	___xxtofl@arg+1,?___xxtofl+1
   986  001458  C013  F009         	movff	___xxtofl@arg+2,?___xxtofl+2
   987  00145C  C014  F00A         	movff	___xxtofl@arg+3,?___xxtofl+3
   988  001460                     l1358:
   989  001460  0012               	return		;funcret
   990  001462                     __end_of___xxtofl:
   991                           	callstack 0
   992                           
   993 ;; *************** function ___fltol *****************
   994 ;; Defined at:
   995 ;;		line 43 in file "C:\Program Files\Microchip\xc8\v2.36\pic\sources\c90\common\fltol.c"
   996 ;; Parameters:    Size  Location     Type
   997 ;;  f1              4   45[COMRAM] unsigned char 
   998 ;; Auto vars:     Size  Location     Type
   999 ;;  exp1            1   54[COMRAM] unsigned char 
  1000 ;;  sign1           1   53[COMRAM] unsigned char 
  1001 ;; Return value:  Size  Location     Type
  1002 ;;                  4   45[COMRAM] long 
  1003 ;; Registers used:
  1004 ;;		wreg, status,2, status,0
  1005 ;; Tracked objects:
  1006 ;;		On entry : 0/0
  1007 ;;		On exit  : 0/0
  1008 ;;		Unchanged: 0/0
  1009 ;; Data sizes:     COMRAM   BANK0   BANK1   BANK2   BANK3   BANK4   BANK5   BANK6   BANK7   BANK8   BANK9  BANK10  BANK1
      +1  BANK12  BANK13  BANK14
  1010 ;;      Params:         4       0       0       0       0       0       0       0       0       0       0       0       
      +0       0       0       0
  1011 ;;      Locals:         2       0       0       0       0       0       0       0       0       0       0       0       
      +0       0       0       0
  1012 ;;      Temps:          4       0       0       0       0       0       0       0       0       0       0       0       
      +0       0       0       0
  1013 ;;      Totals:        10       0       0       0       0       0       0       0       0       0       0       0       
      +0       0       0       0
  1014 ;;Total ram usage:       10 bytes
  1015 ;; Hardware stack levels used: 1
  1016 ;; Hardware stack levels required when called: 5
  1017 ;; This function calls:
  1018 ;;		Nothing
  1019 ;; This function is called by:
  1020 ;;		_Temperatura
  1021 ;; This function uses a non-reentrant model
  1022 ;;
  1023                           
  1024                           	psect	text3
  1025  0015E8                     __ptext3:
  1026                           	callstack 0
  1027  0015E8                     ___fltol:
  1028                           	callstack 24
  1029  0015E8  3430               	rlcf	(___fltol@f1+2)^0,w,c
  1030  0015EA  3431               	rlcf	(___fltol@f1+3)^0,w,c
  1031  0015EC  6E37               	movwf	___fltol@exp1^0,c
  1032  0015EE  5037               	movf	___fltol@exp1^0,w,c
  1033  0015F0  A4D8               	btfss	status,2,c
  1034  0015F2  EFFD  F00A         	goto	u1351
  1035  0015F6  EFFF  F00A         	goto	u1350
  1036  0015FA                     u1351:
  1037  0015FA  EF09  F00B         	goto	l2555
  1038  0015FE                     u1350:
  1039  0015FE                     l2551:
  1040  0015FE  0E00               	movlw	0
  1041  001600  6E2E               	movwf	?___fltol^0,c
  1042  001602  0E00               	movlw	0
  1043  001604  6E2F               	movwf	(?___fltol+1)^0,c
  1044  001606  0E00               	movlw	0
  1045  001608  6E30               	movwf	(?___fltol+2)^0,c
  1046  00160A  0E00               	movlw	0
  1047  00160C  6E31               	movwf	(?___fltol+3)^0,c
  1048  00160E  EF76  F00B         	goto	l1001
  1049  001612                     l2555:
  1050  001612  C02E  F032         	movff	___fltol@f1,??___fltol
  1051  001616  C02F  F033         	movff	___fltol@f1+1,??___fltol+1
  1052  00161A  C030  F034         	movff	___fltol@f1+2,??___fltol+2
  1053  00161E  C031  F035         	movff	___fltol@f1+3,??___fltol+3
  1054  001622  0E20               	movlw	32
  1055  001624  EF19  F00B         	goto	u1360
  1056  001628                     u1365:
  1057  001628  90D8               	bcf	status,0,c
  1058  00162A  3235               	rrcf	(??___fltol+3)^0,f,c
  1059  00162C  3234               	rrcf	(??___fltol+2)^0,f,c
  1060  00162E  3233               	rrcf	(??___fltol+1)^0,f,c
  1061  001630  3232               	rrcf	??___fltol^0,f,c
  1062  001632                     u1360:
  1063  001632  2EE8               	decfsz	wreg,f,c
  1064  001634  EF14  F00B         	goto	u1365
  1065  001638  5032               	movf	??___fltol^0,w,c
  1066  00163A  6E36               	movwf	___fltol@sign1^0,c
  1067  00163C  8E30               	bsf	(___fltol@f1+2)^0,7,c
  1068  00163E  0EFF               	movlw	255
  1069  001640  162E               	andwf	___fltol@f1^0,f,c
  1070  001642  0EFF               	movlw	255
  1071  001644  162F               	andwf	(___fltol@f1+1)^0,f,c
  1072  001646  0EFF               	movlw	255
  1073  001648  1630               	andwf	(___fltol@f1+2)^0,f,c
  1074  00164A  0E00               	movlw	0
  1075  00164C  1631               	andwf	(___fltol@f1+3)^0,f,c
  1076  00164E  0E96               	movlw	150
  1077  001650  5E37               	subwf	___fltol@exp1^0,f,c
  1078  001652  BE37               	btfsc	___fltol@exp1^0,7,c
  1079  001654  EF30  F00B         	goto	u1370
  1080  001658  EF2E  F00B         	goto	u1371
  1081  00165C                     u1371:
  1082  00165C  EF46  F00B         	goto	l2575
  1083  001660                     u1370:
  1084  001660  5037               	movf	___fltol@exp1^0,w,c
  1085  001662  0A80               	xorlw	128
  1086  001664  0F97               	addlw	151
  1087  001666  B0D8               	btfsc	status,0,c
  1088  001668  EF38  F00B         	goto	u1381
  1089  00166C  EF3A  F00B         	goto	u1380
  1090  001670                     u1381:
  1091  001670  EF3C  F00B         	goto	l2571
  1092  001674                     u1380:
  1093  001674  EFFF  F00A         	goto	l2551
  1094  001678                     l2571:
  1095  001678  90D8               	bcf	status,0,c
  1096  00167A  3231               	rrcf	(___fltol@f1+3)^0,f,c
  1097  00167C  3230               	rrcf	(___fltol@f1+2)^0,f,c
  1098  00167E  322F               	rrcf	(___fltol@f1+1)^0,f,c
  1099  001680  322E               	rrcf	___fltol@f1^0,f,c
  1100  001682  3E37               	incfsz	___fltol@exp1^0,f,c
  1101  001684  EF3C  F00B         	goto	l2571
  1102  001688  EF5E  F00B         	goto	l2585
  1103  00168C                     l2575:
  1104  00168C  0E1F               	movlw	31
  1105  00168E  6437               	cpfsgt	___fltol@exp1^0,c
  1106  001690  EF4C  F00B         	goto	u1391
  1107  001694  EF4E  F00B         	goto	u1390
  1108  001698                     u1391:
  1109  001698  EF56  F00B         	goto	l2583
  1110  00169C                     u1390:
  1111  00169C  EFFF  F00A         	goto	l2551
  1112  0016A0                     l2581:
  1113  0016A0  90D8               	bcf	status,0,c
  1114  0016A2  362E               	rlcf	___fltol@f1^0,f,c
  1115  0016A4  362F               	rlcf	(___fltol@f1+1)^0,f,c
  1116  0016A6  3630               	rlcf	(___fltol@f1+2)^0,f,c
  1117  0016A8  3631               	rlcf	(___fltol@f1+3)^0,f,c
  1118  0016AA  0637               	decf	___fltol@exp1^0,f,c
  1119  0016AC                     l2583:
  1120  0016AC  5037               	movf	___fltol@exp1^0,w,c
  1121  0016AE  A4D8               	btfss	status,2,c
  1122  0016B0  EF5C  F00B         	goto	u1401
  1123  0016B4  EF5E  F00B         	goto	u1400
  1124  0016B8                     u1401:
  1125  0016B8  EF50  F00B         	goto	l2581
  1126  0016BC                     u1400:
  1127  0016BC                     l2585:
  1128  0016BC  5036               	movf	___fltol@sign1^0,w,c
  1129  0016BE  B4D8               	btfsc	status,2,c
  1130  0016C0  EF64  F00B         	goto	u1411
  1131  0016C4  EF66  F00B         	goto	u1410
  1132  0016C8                     u1411:
  1133  0016C8  EF6E  F00B         	goto	l2589
  1134  0016CC                     u1410:
  1135  0016CC  1E31               	comf	(___fltol@f1+3)^0,f,c
  1136  0016CE  1E30               	comf	(___fltol@f1+2)^0,f,c
  1137  0016D0  1E2F               	comf	(___fltol@f1+1)^0,f,c
  1138  0016D2  6C2E               	negf	___fltol@f1^0,c
  1139  0016D4  0E00               	movlw	0
  1140  0016D6  222F               	addwfc	(___fltol@f1+1)^0,f,c
  1141  0016D8  2230               	addwfc	(___fltol@f1+2)^0,f,c
  1142  0016DA  2231               	addwfc	(___fltol@f1+3)^0,f,c
  1143  0016DC                     l2589:
  1144  0016DC  C02E  F02E         	movff	___fltol@f1,?___fltol
  1145  0016E0  C02F  F02F         	movff	___fltol@f1+1,?___fltol+1
  1146  0016E4  C030  F030         	movff	___fltol@f1+2,?___fltol+2
  1147  0016E8  C031  F031         	movff	___fltol@f1+3,?___fltol+3
  1148  0016EC                     l1001:
  1149  0016EC  0012               	return		;funcret
  1150  0016EE                     __end_of___fltol:
  1151                           	callstack 0
  1152                           
  1153 ;; *************** function ___fldiv *****************
  1154 ;; Defined at:
  1155 ;;		line 11 in file "C:\Program Files\Microchip\xc8\v2.36\pic\sources\c90\common\sprcdiv.c"
  1156 ;; Parameters:    Size  Location     Type
  1157 ;;  b               4   20[COMRAM] long 
  1158 ;;  a               4   24[COMRAM] long 
  1159 ;; Auto vars:     Size  Location     Type
  1160 ;;  grs             4   39[COMRAM] unsigned long 
  1161 ;;  rem             4   32[COMRAM] unsigned long 
  1162 ;;  new_exp         2   37[COMRAM] int 
  1163 ;;  aexp            1   44[COMRAM] unsigned char 
  1164 ;;  bexp            1   43[COMRAM] unsigned char 
  1165 ;;  sign            1   36[COMRAM] unsigned char 
  1166 ;; Return value:  Size  Location     Type
  1167 ;;                  4   20[COMRAM] unsigned char 
  1168 ;; Registers used:
  1169 ;;		wreg, status,2, status,0
  1170 ;; Tracked objects:
  1171 ;;		On entry : 0/0
  1172 ;;		On exit  : 0/0
  1173 ;;		Unchanged: 0/0
  1174 ;; Data sizes:     COMRAM   BANK0   BANK1   BANK2   BANK3   BANK4   BANK5   BANK6   BANK7   BANK8   BANK9  BANK10  BANK1
      +1  BANK12  BANK13  BANK14
  1175 ;;      Params:         8       0       0       0       0       0       0       0       0       0       0       0       
      +0       0       0       0
  1176 ;;      Locals:        13       0       0       0       0       0       0       0       0       0       0       0       
      +0       0       0       0
  1177 ;;      Temps:          4       0       0       0       0       0       0       0       0       0       0       0       
      +0       0       0       0
  1178 ;;      Totals:        25       0       0       0       0       0       0       0       0       0       0       0       
      +0       0       0       0
  1179 ;;Total ram usage:       25 bytes
  1180 ;; Hardware stack levels used: 1
  1181 ;; Hardware stack levels required when called: 5
  1182 ;; This function calls:
  1183 ;;		Nothing
  1184 ;; This function is called by:
  1185 ;;		_Temperatura
  1186 ;; This function uses a non-reentrant model
  1187 ;;
  1188                           
  1189                           	psect	text4
  1190  000F14                     __ptext4:
  1191                           	callstack 0
  1192  000F14                     ___fldiv:
  1193                           	callstack 24
  1194  000F14  5018               	movf	(___fldiv@b+3)^0,w,c
  1195  000F16  0B80               	andlw	128
  1196  000F18  6E25               	movwf	___fldiv@sign^0,c
  1197  000F1A  5018               	movf	(___fldiv@b+3)^0,w,c
  1198  000F1C  2418               	addwf	(___fldiv@b+3)^0,w,c
  1199  000F1E  6E2C               	movwf	___fldiv@bexp^0,c
  1200  000F20  AE17               	btfss	(___fldiv@b+2)^0,7,c
  1201  000F22  EF95  F007         	goto	u1121
  1202  000F26  EF97  F007         	goto	u1120
  1203  000F2A                     u1121:
  1204  000F2A  EF98  F007         	goto	l2417
  1205  000F2E                     u1120:
  1206  000F2E  802C               	bsf	___fldiv@bexp^0,0,c
  1207  000F30                     l2417:
  1208  000F30  502C               	movf	___fldiv@bexp^0,w,c
  1209  000F32  B4D8               	btfsc	status,2,c
  1210  000F34  EF9E  F007         	goto	u1131
  1211  000F38  EFA0  F007         	goto	u1130
  1212  000F3C                     u1131:
  1213  000F3C  EFB5  F007         	goto	l2427
  1214  000F40                     u1130:
  1215  000F40  282C               	incf	___fldiv@bexp^0,w,c
  1216  000F42  A4D8               	btfss	status,2,c
  1217  000F44  EFA6  F007         	goto	u1141
  1218  000F48  EFA8  F007         	goto	u1140
  1219  000F4C                     u1141:
  1220  000F4C  EFB0  F007         	goto	l2423
  1221  000F50                     u1140:
  1222  000F50  0E00               	movlw	0
  1223  000F52  6E15               	movwf	___fldiv@b^0,c
  1224  000F54  0E00               	movlw	0
  1225  000F56  6E16               	movwf	(___fldiv@b+1)^0,c
  1226  000F58  0E00               	movlw	0
  1227  000F5A  6E17               	movwf	(___fldiv@b+2)^0,c
  1228  000F5C  0E00               	movlw	0
  1229  000F5E  6E18               	movwf	(___fldiv@b+3)^0,c
  1230  000F60                     l2423:
  1231  000F60  8E17               	bsf	(___fldiv@b+2)^0,7,c
  1232  000F62  0E00               	movlw	0
  1233  000F64  6E18               	movwf	(___fldiv@b+3)^0,c
  1234  000F66  EFBD  F007         	goto	l2429
  1235  000F6A                     l2427:
  1236  000F6A  0E00               	movlw	0
  1237  000F6C  6E15               	movwf	___fldiv@b^0,c
  1238  000F6E  0E00               	movlw	0
  1239  000F70  6E16               	movwf	(___fldiv@b+1)^0,c
  1240  000F72  0E00               	movlw	0
  1241  000F74  6E17               	movwf	(___fldiv@b+2)^0,c
  1242  000F76  0E00               	movlw	0
  1243  000F78  6E18               	movwf	(___fldiv@b+3)^0,c
  1244  000F7A                     l2429:
  1245  000F7A  501C               	movf	(___fldiv@a+3)^0,w,c
  1246  000F7C  0B80               	andlw	128
  1247  000F7E  1A25               	xorwf	___fldiv@sign^0,f,c
  1248  000F80  501C               	movf	(___fldiv@a+3)^0,w,c
  1249  000F82  241C               	addwf	(___fldiv@a+3)^0,w,c
  1250  000F84  6E2D               	movwf	___fldiv@aexp^0,c
  1251  000F86  AE1B               	btfss	(___fldiv@a+2)^0,7,c
  1252  000F88  EFC8  F007         	goto	u1151
  1253  000F8C  EFCA  F007         	goto	u1150
  1254  000F90                     u1151:
  1255  000F90  EFCB  F007         	goto	l2437
  1256  000F94                     u1150:
  1257  000F94  802D               	bsf	___fldiv@aexp^0,0,c
  1258  000F96                     l2437:
  1259  000F96  502D               	movf	___fldiv@aexp^0,w,c
  1260  000F98  B4D8               	btfsc	status,2,c
  1261  000F9A  EFD1  F007         	goto	u1161
  1262  000F9E  EFD3  F007         	goto	u1160
  1263  000FA2                     u1161:
  1264  000FA2  EFE8  F007         	goto	l2447
  1265  000FA6                     u1160:
  1266  000FA6  282D               	incf	___fldiv@aexp^0,w,c
  1267  000FA8  A4D8               	btfss	status,2,c
  1268  000FAA  EFD9  F007         	goto	u1171
  1269  000FAE  EFDB  F007         	goto	u1170
  1270  000FB2                     u1171:
  1271  000FB2  EFE3  F007         	goto	l2443
  1272  000FB6                     u1170:
  1273  000FB6  0E00               	movlw	0
  1274  000FB8  6E19               	movwf	___fldiv@a^0,c
  1275  000FBA  0E00               	movlw	0
  1276  000FBC  6E1A               	movwf	(___fldiv@a+1)^0,c
  1277  000FBE  0E00               	movlw	0
  1278  000FC0  6E1B               	movwf	(___fldiv@a+2)^0,c
  1279  000FC2  0E00               	movlw	0
  1280  000FC4  6E1C               	movwf	(___fldiv@a+3)^0,c
  1281  000FC6                     l2443:
  1282  000FC6  8E1B               	bsf	(___fldiv@a+2)^0,7,c
  1283  000FC8  0E00               	movlw	0
  1284  000FCA  6E1C               	movwf	(___fldiv@a+3)^0,c
  1285  000FCC  EFF0  F007         	goto	l2449
  1286  000FD0                     l2447:
  1287  000FD0  0E00               	movlw	0
  1288  000FD2  6E19               	movwf	___fldiv@a^0,c
  1289  000FD4  0E00               	movlw	0
  1290  000FD6  6E1A               	movwf	(___fldiv@a+1)^0,c
  1291  000FD8  0E00               	movlw	0
  1292  000FDA  6E1B               	movwf	(___fldiv@a+2)^0,c
  1293  000FDC  0E00               	movlw	0
  1294  000FDE  6E1C               	movwf	(___fldiv@a+3)^0,c
  1295  000FE0                     l2449:
  1296  000FE0  5019               	movf	___fldiv@a^0,w,c
  1297  000FE2  101A               	iorwf	(___fldiv@a+1)^0,w,c
  1298  000FE4  101B               	iorwf	(___fldiv@a+2)^0,w,c
  1299  000FE6  101C               	iorwf	(___fldiv@a+3)^0,w,c
  1300  000FE8  A4D8               	btfss	status,2,c
  1301  000FEA  EFF9  F007         	goto	u1181
  1302  000FEE  EFFB  F007         	goto	u1180
  1303  000FF2                     u1181:
  1304  000FF2  EF13  F008         	goto	l2461
  1305  000FF6                     u1180:
  1306  000FF6  0E00               	movlw	0
  1307  000FF8  6E15               	movwf	___fldiv@b^0,c
  1308  000FFA  0E00               	movlw	0
  1309  000FFC  6E16               	movwf	(___fldiv@b+1)^0,c
  1310  000FFE  0E00               	movlw	0
  1311  001000  6E17               	movwf	(___fldiv@b+2)^0,c
  1312  001002  0E00               	movlw	0
  1313  001004  6E18               	movwf	(___fldiv@b+3)^0,c
  1314  001006  0E80               	movlw	128
  1315  001008  1217               	iorwf	(___fldiv@b+2)^0,f,c
  1316  00100A  0E7F               	movlw	127
  1317  00100C  1218               	iorwf	(___fldiv@b+3)^0,f,c
  1318  00100E                     l2455:
  1319  00100E  5025               	movf	___fldiv@sign^0,w,c
  1320  001010  1218               	iorwf	(___fldiv@b+3)^0,f,c
  1321  001012  C015  F015         	movff	___fldiv@b,?___fldiv
  1322  001016  C016  F016         	movff	___fldiv@b+1,?___fldiv+1
  1323  00101A  C017  F017         	movff	___fldiv@b+2,?___fldiv+2
  1324  00101E  C018  F018         	movff	___fldiv@b+3,?___fldiv+3
  1325  001022  EF56  F009         	goto	l1282
  1326  001026                     l2461:
  1327  001026  502C               	movf	___fldiv@bexp^0,w,c
  1328  001028  A4D8               	btfss	status,2,c
  1329  00102A  EF19  F008         	goto	u1191
  1330  00102E  EF1B  F008         	goto	u1190
  1331  001032                     u1191:
  1332  001032  EF25  F008         	goto	l2469
  1333  001036                     u1190:
  1334  001036  0E00               	movlw	0
  1335  001038  6E15               	movwf	?___fldiv^0,c
  1336  00103A  0E00               	movlw	0
  1337  00103C  6E16               	movwf	(?___fldiv+1)^0,c
  1338  00103E  0E00               	movlw	0
  1339  001040  6E17               	movwf	(?___fldiv+2)^0,c
  1340  001042  0E00               	movlw	0
  1341  001044  6E18               	movwf	(?___fldiv+3)^0,c
  1342  001046  EF56  F009         	goto	l1282
  1343  00104A                     l2469:
  1344  00104A  502D               	movf	___fldiv@aexp^0,w,c
  1345  00104C  C02C  F01D         	movff	___fldiv@bexp,??___fldiv
  1346  001050  6A1E               	clrf	(??___fldiv+1)^0,c
  1347  001052  5E1D               	subwf	??___fldiv^0,f,c
  1348  001054  0E00               	movlw	0
  1349  001056  5A1E               	subwfb	(??___fldiv+1)^0,f,c
  1350  001058  0E7F               	movlw	127
  1351  00105A  241D               	addwf	??___fldiv^0,w,c
  1352  00105C  6E26               	movwf	___fldiv@new_exp^0,c
  1353  00105E  0E00               	movlw	0
  1354  001060  201E               	addwfc	(??___fldiv+1)^0,w,c
  1355  001062  6E27               	movwf	(___fldiv@new_exp+1)^0,c
  1356  001064  C015  F021         	movff	___fldiv@b,___fldiv@rem
  1357  001068  C016  F022         	movff	___fldiv@b+1,___fldiv@rem+1
  1358  00106C  C017  F023         	movff	___fldiv@b+2,___fldiv@rem+2
  1359  001070  C018  F024         	movff	___fldiv@b+3,___fldiv@rem+3
  1360  001074  0E00               	movlw	0
  1361  001076  6E15               	movwf	___fldiv@b^0,c
  1362  001078  0E00               	movlw	0
  1363  00107A  6E16               	movwf	(___fldiv@b+1)^0,c
  1364  00107C  0E00               	movlw	0
  1365  00107E  6E17               	movwf	(___fldiv@b+2)^0,c
  1366  001080  0E00               	movlw	0
  1367  001082  6E18               	movwf	(___fldiv@b+3)^0,c
  1368  001084  0E00               	movlw	0
  1369  001086  6E28               	movwf	___fldiv@grs^0,c
  1370  001088  0E00               	movlw	0
  1371  00108A  6E29               	movwf	(___fldiv@grs+1)^0,c
  1372  00108C  0E00               	movlw	0
  1373  00108E  6E2A               	movwf	(___fldiv@grs+2)^0,c
  1374  001090  0E00               	movlw	0
  1375  001092  6E2B               	movwf	(___fldiv@grs+3)^0,c
  1376  001094  0E00               	movlw	0
  1377  001096  6E2D               	movwf	___fldiv@aexp^0,c
  1378  001098  EF86  F008         	goto	l1284
  1379  00109C                     l2479:
  1380  00109C  502D               	movf	___fldiv@aexp^0,w,c
  1381  00109E  B4D8               	btfsc	status,2,c
  1382  0010A0  EF54  F008         	goto	u1201
  1383  0010A4  EF56  F008         	goto	u1200
  1384  0010A8                     u1201:
  1385  0010A8  EF6D  F008         	goto	l2487
  1386  0010AC                     u1200:
  1387  0010AC  90D8               	bcf	status,0,c
  1388  0010AE  3621               	rlcf	___fldiv@rem^0,f,c
  1389  0010B0  3622               	rlcf	(___fldiv@rem+1)^0,f,c
  1390  0010B2  3623               	rlcf	(___fldiv@rem+2)^0,f,c
  1391  0010B4  3624               	rlcf	(___fldiv@rem+3)^0,f,c
  1392  0010B6  90D8               	bcf	status,0,c
  1393  0010B8  3615               	rlcf	___fldiv@b^0,f,c
  1394  0010BA  3616               	rlcf	(___fldiv@b+1)^0,f,c
  1395  0010BC  3617               	rlcf	(___fldiv@b+2)^0,f,c
  1396  0010BE  3618               	rlcf	(___fldiv@b+3)^0,f,c
  1397  0010C0  AE2B               	btfss	(___fldiv@grs+3)^0,7,c
  1398  0010C2  EF65  F008         	goto	u1211
  1399  0010C6  EF67  F008         	goto	u1210
  1400  0010CA                     u1211:
  1401  0010CA  EF68  F008         	goto	l1287
  1402  0010CE                     u1210:
  1403  0010CE  8015               	bsf	___fldiv@b^0,0,c
  1404  0010D0                     l1287:
  1405  0010D0  90D8               	bcf	status,0,c
  1406  0010D2  3628               	rlcf	___fldiv@grs^0,f,c
  1407  0010D4  3629               	rlcf	(___fldiv@grs+1)^0,f,c
  1408  0010D6  362A               	rlcf	(___fldiv@grs+2)^0,f,c
  1409  0010D8  362B               	rlcf	(___fldiv@grs+3)^0,f,c
  1410  0010DA                     l2487:
  1411  0010DA  5019               	movf	___fldiv@a^0,w,c
  1412  0010DC  5C21               	subwf	___fldiv@rem^0,w,c
  1413  0010DE  501A               	movf	(___fldiv@a+1)^0,w,c
  1414  0010E0  5822               	subwfb	(___fldiv@rem+1)^0,w,c
  1415  0010E2  501B               	movf	(___fldiv@a+2)^0,w,c
  1416  0010E4  5823               	subwfb	(___fldiv@rem+2)^0,w,c
  1417  0010E6  501C               	movf	(___fldiv@a+3)^0,w,c
  1418  0010E8  5824               	subwfb	(___fldiv@rem+3)^0,w,c
  1419  0010EA  A0D8               	btfss	status,0,c
  1420  0010EC  EF7A  F008         	goto	u1221
  1421  0010F0  EF7C  F008         	goto	u1220
  1422  0010F4                     u1221:
  1423  0010F4  EF85  F008         	goto	l2493
  1424  0010F8                     u1220:
  1425  0010F8  8C2B               	bsf	(___fldiv@grs+3)^0,6,c
  1426  0010FA  5019               	movf	___fldiv@a^0,w,c
  1427  0010FC  5E21               	subwf	___fldiv@rem^0,f,c
  1428  0010FE  501A               	movf	(___fldiv@a+1)^0,w,c
  1429  001100  5A22               	subwfb	(___fldiv@rem+1)^0,f,c
  1430  001102  501B               	movf	(___fldiv@a+2)^0,w,c
  1431  001104  5A23               	subwfb	(___fldiv@rem+2)^0,f,c
  1432  001106  501C               	movf	(___fldiv@a+3)^0,w,c
  1433  001108  5A24               	subwfb	(___fldiv@rem+3)^0,f,c
  1434  00110A                     l2493:
  1435  00110A  2A2D               	incf	___fldiv@aexp^0,f,c
  1436  00110C                     l1284:
  1437  00110C  0E19               	movlw	25
  1438  00110E  642D               	cpfsgt	___fldiv@aexp^0,c
  1439  001110  EF8C  F008         	goto	u1231
  1440  001114  EF8E  F008         	goto	u1230
  1441  001118                     u1231:
  1442  001118  EF4E  F008         	goto	l2479
  1443  00111C                     u1230:
  1444  00111C  5021               	movf	___fldiv@rem^0,w,c
  1445  00111E  1022               	iorwf	(___fldiv@rem+1)^0,w,c
  1446  001120  1023               	iorwf	(___fldiv@rem+2)^0,w,c
  1447  001122  1024               	iorwf	(___fldiv@rem+3)^0,w,c
  1448  001124  B4D8               	btfsc	status,2,c
  1449  001126  EF97  F008         	goto	u1241
  1450  00112A  EF99  F008         	goto	u1240
  1451  00112E                     u1241:
  1452  00112E  EFB1  F008         	goto	l2505
  1453  001132                     u1240:
  1454  001132  8028               	bsf	___fldiv@grs^0,0,c
  1455  001134  EFB1  F008         	goto	l2505
  1456  001138                     l2499:
  1457  001138  90D8               	bcf	status,0,c
  1458  00113A  3615               	rlcf	___fldiv@b^0,f,c
  1459  00113C  3616               	rlcf	(___fldiv@b+1)^0,f,c
  1460  00113E  3617               	rlcf	(___fldiv@b+2)^0,f,c
  1461  001140  3618               	rlcf	(___fldiv@b+3)^0,f,c
  1462  001142  AE2B               	btfss	(___fldiv@grs+3)^0,7,c
  1463  001144  EFA6  F008         	goto	u1251
  1464  001148  EFA8  F008         	goto	u1250
  1465  00114C                     u1251:
  1466  00114C  EFA9  F008         	goto	l1293
  1467  001150                     u1250:
  1468  001150  8015               	bsf	___fldiv@b^0,0,c
  1469  001152                     l1293:
  1470  001152  90D8               	bcf	status,0,c
  1471  001154  3628               	rlcf	___fldiv@grs^0,f,c
  1472  001156  3629               	rlcf	(___fldiv@grs+1)^0,f,c
  1473  001158  362A               	rlcf	(___fldiv@grs+2)^0,f,c
  1474  00115A  362B               	rlcf	(___fldiv@grs+3)^0,f,c
  1475  00115C  0626               	decf	___fldiv@new_exp^0,f,c
  1476  00115E  A0D8               	btfss	status,0,c
  1477  001160  0627               	decf	(___fldiv@new_exp+1)^0,f,c
  1478  001162                     l2505:
  1479  001162  AE17               	btfss	(___fldiv@b+2)^0,7,c
  1480  001164  EFB6  F008         	goto	u1261
  1481  001168  EFB8  F008         	goto	u1260
  1482  00116C                     u1261:
  1483  00116C  EF9C  F008         	goto	l2499
  1484  001170                     u1260:
  1485  001170  0E00               	movlw	0
  1486  001172  6E2D               	movwf	___fldiv@aexp^0,c
  1487  001174  AE2B               	btfss	(___fldiv@grs+3)^0,7,c
  1488  001176  EFBF  F008         	goto	u1271
  1489  00117A  EFC1  F008         	goto	u1270
  1490  00117E                     u1271:
  1491  00117E  EFE5  F008         	goto	l1295
  1492  001182                     u1270:
  1493  001182  0EFF               	movlw	255
  1494  001184  1428               	andwf	___fldiv@grs^0,w,c
  1495  001186  6E1D               	movwf	??___fldiv^0,c
  1496  001188  0EFF               	movlw	255
  1497  00118A  1429               	andwf	(___fldiv@grs+1)^0,w,c
  1498  00118C  6E1E               	movwf	(??___fldiv+1)^0,c
  1499  00118E  0EFF               	movlw	255
  1500  001190  142A               	andwf	(___fldiv@grs+2)^0,w,c
  1501  001192  6E1F               	movwf	(??___fldiv+2)^0,c
  1502  001194  0E7F               	movlw	127
  1503  001196  142B               	andwf	(___fldiv@grs+3)^0,w,c
  1504  001198  6E20               	movwf	(??___fldiv+3)^0,c
  1505  00119A  501D               	movf	??___fldiv^0,w,c
  1506  00119C  101E               	iorwf	(??___fldiv+1)^0,w,c
  1507  00119E  101F               	iorwf	(??___fldiv+2)^0,w,c
  1508  0011A0  1020               	iorwf	(??___fldiv+3)^0,w,c
  1509  0011A2  B4D8               	btfsc	status,2,c
  1510  0011A4  EFD6  F008         	goto	u1281
  1511  0011A8  EFD8  F008         	goto	u1280
  1512  0011AC                     u1281:
  1513  0011AC  EFDC  F008         	goto	l1296
  1514  0011B0                     u1280:
  1515  0011B0                     l2513:
  1516  0011B0  0E01               	movlw	1
  1517  0011B2  6E2D               	movwf	___fldiv@aexp^0,c
  1518  0011B4  EFE5  F008         	goto	l1295
  1519  0011B8                     l1296:
  1520  0011B8  A015               	btfss	___fldiv@b^0,0,c
  1521  0011BA  EFE1  F008         	goto	u1291
  1522  0011BE  EFE3  F008         	goto	u1290
  1523  0011C2                     u1291:
  1524  0011C2  EFE5  F008         	goto	l1295
  1525  0011C6                     u1290:
  1526  0011C6  EFD8  F008         	goto	l2513
  1527  0011CA                     l1295:
  1528  0011CA  502D               	movf	___fldiv@aexp^0,w,c
  1529  0011CC  B4D8               	btfsc	status,2,c
  1530  0011CE  EFEB  F008         	goto	u1301
  1531  0011D2  EFED  F008         	goto	u1300
  1532  0011D6                     u1301:
  1533  0011D6  EF11  F009         	goto	l2525
  1534  0011DA                     u1300:
  1535  0011DA  0E01               	movlw	1
  1536  0011DC  2615               	addwf	___fldiv@b^0,f,c
  1537  0011DE  0E00               	movlw	0
  1538  0011E0  2216               	addwfc	(___fldiv@b+1)^0,f,c
  1539  0011E2  2217               	addwfc	(___fldiv@b+2)^0,f,c
  1540  0011E4  2218               	addwfc	(___fldiv@b+3)^0,f,c
  1541  0011E6  A018               	btfss	(___fldiv@b+3)^0,0,c
  1542  0011E8  EFF8  F008         	goto	u1311
  1543  0011EC  EFFA  F008         	goto	u1310
  1544  0011F0                     u1311:
  1545  0011F0  EF11  F009         	goto	l2525
  1546  0011F4                     u1310:
  1547  0011F4  C015  F01D         	movff	___fldiv@b,??___fldiv
  1548  0011F8  C016  F01E         	movff	___fldiv@b+1,??___fldiv+1
  1549  0011FC  C017  F01F         	movff	___fldiv@b+2,??___fldiv+2
  1550  001200  C018  F020         	movff	___fldiv@b+3,??___fldiv+3
  1551  001204  3420               	rlcf	(??___fldiv+3)^0,w,c
  1552  001206  3220               	rrcf	(??___fldiv+3)^0,f,c
  1553  001208  321F               	rrcf	(??___fldiv+2)^0,f,c
  1554  00120A  321E               	rrcf	(??___fldiv+1)^0,f,c
  1555  00120C  321D               	rrcf	??___fldiv^0,f,c
  1556  00120E  C01D  F015         	movff	??___fldiv,___fldiv@b
  1557  001212  C01E  F016         	movff	??___fldiv+1,___fldiv@b+1
  1558  001216  C01F  F017         	movff	??___fldiv+2,___fldiv@b+2
  1559  00121A  C020  F018         	movff	??___fldiv+3,___fldiv@b+3
  1560  00121E  4A26               	infsnz	___fldiv@new_exp^0,f,c
  1561  001220  2A27               	incf	(___fldiv@new_exp+1)^0,f,c
  1562  001222                     l2525:
  1563  001222  BE27               	btfsc	(___fldiv@new_exp+1)^0,7,c
  1564  001224  EF1C  F009         	goto	u1321
  1565  001228  5027               	movf	(___fldiv@new_exp+1)^0,w,c
  1566  00122A  E108               	bnz	u1320
  1567  00122C  2826               	incf	___fldiv@new_exp^0,w,c
  1568  00122E  A0D8               	btfss	status,0,c
  1569  001230  EF1C  F009         	goto	u1321
  1570  001234  EF1E  F009         	goto	u1320
  1571  001238                     u1321:
  1572  001238  EF29  F009         	goto	l2529
  1573  00123C                     u1320:
  1574  00123C  0E00               	movlw	0
  1575  00123E  6E27               	movwf	(___fldiv@new_exp+1)^0,c
  1576  001240  6826               	setf	___fldiv@new_exp^0,c
  1577  001242  0E00               	movlw	0
  1578  001244  6E15               	movwf	___fldiv@b^0,c
  1579  001246  0E00               	movlw	0
  1580  001248  6E16               	movwf	(___fldiv@b+1)^0,c
  1581  00124A  0E00               	movlw	0
  1582  00124C  6E17               	movwf	(___fldiv@b+2)^0,c
  1583  00124E  0E00               	movlw	0
  1584  001250  6E18               	movwf	(___fldiv@b+3)^0,c
  1585  001252                     l2529:
  1586  001252  BE27               	btfsc	(___fldiv@new_exp+1)^0,7,c
  1587  001254  EF36  F009         	goto	u1330
  1588  001258  5027               	movf	(___fldiv@new_exp+1)^0,w,c
  1589  00125A  E106               	bnz	u1331
  1590  00125C  0426               	decf	___fldiv@new_exp^0,w,c
  1591  00125E  B0D8               	btfsc	status,0,c
  1592  001260  EF34  F009         	goto	u1331
  1593  001264  EF36  F009         	goto	u1330
  1594  001268                     u1331:
  1595  001268  EF44  F009         	goto	l2533
  1596  00126C                     u1330:
  1597  00126C  0E00               	movlw	0
  1598  00126E  6E27               	movwf	(___fldiv@new_exp+1)^0,c
  1599  001270  0E00               	movlw	0
  1600  001272  6E26               	movwf	___fldiv@new_exp^0,c
  1601  001274  0E00               	movlw	0
  1602  001276  6E15               	movwf	___fldiv@b^0,c
  1603  001278  0E00               	movlw	0
  1604  00127A  6E16               	movwf	(___fldiv@b+1)^0,c
  1605  00127C  0E00               	movlw	0
  1606  00127E  6E17               	movwf	(___fldiv@b+2)^0,c
  1607  001280  0E00               	movlw	0
  1608  001282  6E18               	movwf	(___fldiv@b+3)^0,c
  1609  001284  0E00               	movlw	0
  1610  001286  6E25               	movwf	___fldiv@sign^0,c
  1611  001288                     l2533:
  1612  001288  C026  F02C         	movff	___fldiv@new_exp,___fldiv@bexp
  1613  00128C  A02C               	btfss	___fldiv@bexp^0,0,c
  1614  00128E  EF4B  F009         	goto	u1341
  1615  001292  EF4D  F009         	goto	u1340
  1616  001296                     u1341:
  1617  001296  EF50  F009         	goto	l2539
  1618  00129A                     u1340:
  1619  00129A  8E17               	bsf	(___fldiv@b+2)^0,7,c
  1620  00129C  EF51  F009         	goto	l2541
  1621  0012A0                     l2539:
  1622  0012A0  9E17               	bcf	(___fldiv@b+2)^0,7,c
  1623  0012A2                     l2541:
  1624  0012A2  90D8               	bcf	status,0,c
  1625  0012A4  302C               	rrcf	___fldiv@bexp^0,w,c
  1626  0012A6  6E18               	movwf	(___fldiv@b+3)^0,c
  1627  0012A8  EF07  F008         	goto	l2455
  1628  0012AC                     l1282:
  1629  0012AC  0012               	return		;funcret
  1630  0012AE                     __end_of___fldiv:
  1631                           	callstack 0
  1632                           
  1633 ;; *************** function _PWM1_LoadDutyValue *****************
  1634 ;; Defined at:
  1635 ;;		line 82 in file "mcc_generated_files/pwm1.c"
  1636 ;; Parameters:    Size  Location     Type
  1637 ;;  dutyValue       2    6[COMRAM] unsigned int 
  1638 ;; Auto vars:     Size  Location     Type
  1639 ;;		None
  1640 ;; Return value:  Size  Location     Type
  1641 ;;                  1    wreg      void 
  1642 ;; Registers used:
  1643 ;;		wreg, status,2, status,0
  1644 ;; Tracked objects:
  1645 ;;		On entry : 0/0
  1646 ;;		On exit  : 0/0
  1647 ;;		Unchanged: 0/0
  1648 ;; Data sizes:     COMRAM   BANK0   BANK1   BANK2   BANK3   BANK4   BANK5   BANK6   BANK7   BANK8   BANK9  BANK10  BANK1
      +1  BANK12  BANK13  BANK14
  1649 ;;      Params:         2       0       0       0       0       0       0       0       0       0       0       0       
      +0       0       0       0
  1650 ;;      Locals:         0       0       0       0       0       0       0       0       0       0       0       0       
      +0       0       0       0
  1651 ;;      Temps:          0       0       0       0       0       0       0       0       0       0       0       0       
      +0       0       0       0
  1652 ;;      Totals:         2       0       0       0       0       0       0       0       0       0       0       0       
      +0       0       0       0
  1653 ;;Total ram usage:        2 bytes
  1654 ;; Hardware stack levels used: 1
  1655 ;; Hardware stack levels required when called: 5
  1656 ;; This function calls:
  1657 ;;		Nothing
  1658 ;; This function is called by:
  1659 ;;		_Temperatura
  1660 ;; This function uses a non-reentrant model
  1661 ;;
  1662                           
  1663                           	psect	text5
  1664  001C20                     __ptext5:
  1665                           	callstack 0
  1666  001C20                     _PWM1_LoadDutyValue:
  1667                           	callstack 24
  1668  001C20                     
  1669                           ;pwm1.c: 84: dutyValue &= 0x03FF;
  1670  001C20  0EFF               	movlw	255
  1671  001C22  1607               	andwf	PWM1_LoadDutyValue@dutyValue^0,f,c
  1672  001C24  0E03               	movlw	3
  1673  001C26  1608               	andwf	(PWM1_LoadDutyValue@dutyValue+1)^0,f,c
  1674  001C28                     
  1675                           ;pwm1.c: 87: if(CCP1CONbits.FMT)
  1676  001C28  A8AC               	btfss	172,4,c	;volatile
  1677  001C2A  EF19  F00E         	goto	u1031
  1678  001C2E  EF1B  F00E         	goto	u1030
  1679  001C32                     u1031:
  1680  001C32  EF22  F00E         	goto	l2353
  1681  001C36                     u1030:
  1682  001C36                     
  1683                           ;pwm1.c: 88: {;pwm1.c: 89: dutyValue <<= 6;
  1684  001C36  0E06               	movlw	6
  1685  001C38                     u1045:
  1686  001C38  90D8               	bcf	status,0,c
  1687  001C3A  3607               	rlcf	PWM1_LoadDutyValue@dutyValue^0,f,c
  1688  001C3C  3608               	rlcf	(PWM1_LoadDutyValue@dutyValue+1)^0,f,c
  1689  001C3E  2EE8               	decfsz	wreg,f,c
  1690  001C40  EF1C  F00E         	goto	u1045
  1691  001C44                     l2353:
  1692                           
  1693                           ;pwm1.c: 90: CCPR1H = dutyValue >> 8;
  1694  001C44  5008               	movf	(PWM1_LoadDutyValue@dutyValue+1)^0,w,c
  1695  001C46  6EAB               	movwf	171,c	;volatile
  1696  001C48                     
  1697                           ;pwm1.c: 91: CCPR1L = dutyValue;
  1698  001C48  C007  FFAA         	movff	PWM1_LoadDutyValue@dutyValue,4010	;volatile
  1699  001C4C  0012               	return		;funcret
  1700  001C4E                     __end_of_PWM1_LoadDutyValue:
  1701                           	callstack 0
  1702                           
  1703 ;; *************** function _SYSTEM_Initialize *****************
  1704 ;; Defined at:
  1705 ;;		line 50 in file "mcc_generated_files/mcc.c"
  1706 ;; Parameters:    Size  Location     Type
  1707 ;;		None
  1708 ;; Auto vars:     Size  Location     Type
  1709 ;;		None
  1710 ;; Return value:  Size  Location     Type
  1711 ;;                  1    wreg      void 
  1712 ;; Registers used:
  1713 ;;		wreg, status,2, status,0, cstack
  1714 ;; Tracked objects:
  1715 ;;		On entry : 0/0
  1716 ;;		On exit  : 0/0
  1717 ;;		Unchanged: 0/0
  1718 ;; Data sizes:     COMRAM   BANK0   BANK1   BANK2   BANK3   BANK4   BANK5   BANK6   BANK7   BANK8   BANK9  BANK10  BANK1
      +1  BANK12  BANK13  BANK14
  1719 ;;      Params:         0       0       0       0       0       0       0       0       0       0       0       0       
      +0       0       0       0
  1720 ;;      Locals:         0       0       0       0       0       0       0       0       0       0       0       0       
      +0       0       0       0
  1721 ;;      Temps:          0       0       0       0       0       0       0       0       0       0       0       0       
      +0       0       0       0
  1722 ;;      Totals:         0       0       0       0       0       0       0       0       0       0       0       0       
      +0       0       0       0
  1723 ;;Total ram usage:        0 bytes
  1724 ;; Hardware stack levels used: 1
  1725 ;; Hardware stack levels required when called: 7
  1726 ;; This function calls:
  1727 ;;		_ADCC_Initialize
  1728 ;;		_DAC1_Initialize
  1729 ;;		_EUSART1_Initialize
  1730 ;;		_INTERRUPT_Initialize
  1731 ;;		_OSCILLATOR_Initialize
  1732 ;;		_PIN_MANAGER_Initialize
  1733 ;;		_PMD_Initialize
  1734 ;;		_PWM1_Initialize
  1735 ;;		_PWM2_Initialize
  1736 ;;		_TMR0_Initialize
  1737 ;;		_TMR2_Initialize
  1738 ;; This function is called by:
  1739 ;;		_main
  1740 ;; This function uses a non-reentrant model
  1741 ;;
  1742                           
  1743                           	psect	text6
  1744  001C4E                     __ptext6:
  1745                           	callstack 0
  1746  001C4E                     _SYSTEM_Initialize:
  1747                           	callstack 23
  1748  001C4E                     
  1749                           ;mcc.c: 52: INTERRUPT_Initialize();
  1750  001C4E  EC24  F00F         	call	_INTERRUPT_Initialize	;wreg free
  1751  001C52                     
  1752                           ;mcc.c: 53: PMD_Initialize();
  1753  001C52  EC78  F00E         	call	_PMD_Initialize	;wreg free
  1754  001C56                     
  1755                           ;mcc.c: 54: PIN_MANAGER_Initialize();
  1756  001C56  EC41  F00C         	call	_PIN_MANAGER_Initialize	;wreg free
  1757  001C5A                     
  1758                           ;mcc.c: 55: OSCILLATOR_Initialize();
  1759  001C5A  EC86  F00E         	call	_OSCILLATOR_Initialize	;wreg free
  1760  001C5E                     
  1761                           ;mcc.c: 56: PWM1_Initialize();
  1762  001C5E  ECA9  F00E         	call	_PWM1_Initialize	;wreg free
  1763  001C62                     
  1764                           ;mcc.c: 57: PWM2_Initialize();
  1765  001C62  EC9E  F00E         	call	_PWM2_Initialize	;wreg free
  1766  001C66                     
  1767                           ;mcc.c: 58: ADCC_Initialize();
  1768  001C66  EC70  F00D         	call	_ADCC_Initialize	;wreg free
  1769  001C6A                     
  1770                           ;mcc.c: 59: DAC1_Initialize();
  1771  001C6A  ECF1  F00E         	call	_DAC1_Initialize	;wreg free
  1772  001C6E                     
  1773                           ;mcc.c: 60: TMR2_Initialize();
  1774  001C6E  EC69  F00E         	call	_TMR2_Initialize	;wreg free
  1775  001C72                     
  1776                           ;mcc.c: 61: TMR0_Initialize();
  1777  001C72  ECDB  F00D         	call	_TMR0_Initialize	;wreg free
  1778  001C76                     
  1779                           ;mcc.c: 62: EUSART1_Initialize();
  1780  001C76  ECBC  F00D         	call	_EUSART1_Initialize	;wreg free
  1781  001C7A  0012               	return		;funcret
  1782  001C7C                     __end_of_SYSTEM_Initialize:
  1783                           	callstack 0
  1784                           
  1785 ;; *************** function _TMR2_Initialize *****************
  1786 ;; Defined at:
  1787 ;;		line 62 in file "mcc_generated_files/tmr2.c"
  1788 ;; Parameters:    Size  Location     Type
  1789 ;;		None
  1790 ;; Auto vars:     Size  Location     Type
  1791 ;;		None
  1792 ;; Return value:  Size  Location     Type
  1793 ;;                  1    wreg      void 
  1794 ;; Registers used:
  1795 ;;		wreg, status,2
  1796 ;; Tracked objects:
  1797 ;;		On entry : 0/0
  1798 ;;		On exit  : 0/0
  1799 ;;		Unchanged: 0/0
  1800 ;; Data sizes:     COMRAM   BANK0   BANK1   BANK2   BANK3   BANK4   BANK5   BANK6   BANK7   BANK8   BANK9  BANK10  BANK1
      +1  BANK12  BANK13  BANK14
  1801 ;;      Params:         0       0       0       0       0       0       0       0       0       0       0       0       
      +0       0       0       0
  1802 ;;      Locals:         0       0       0       0       0       0       0       0       0       0       0       0       
      +0       0       0       0
  1803 ;;      Temps:          0       0       0       0       0       0       0       0       0       0       0       0       
      +0       0       0       0
  1804 ;;      Totals:         0       0       0       0       0       0       0       0       0       0       0       0       
      +0       0       0       0
  1805 ;;Total ram usage:        0 bytes
  1806 ;; Hardware stack levels used: 1
  1807 ;; Hardware stack levels required when called: 5
  1808 ;; This function calls:
  1809 ;;		Nothing
  1810 ;; This function is called by:
  1811 ;;		_SYSTEM_Initialize
  1812 ;; This function uses a non-reentrant model
  1813 ;;
  1814                           
  1815                           	psect	text7
  1816  001CD2                     __ptext7:
  1817                           	callstack 0
  1818  001CD2                     _TMR2_Initialize:
  1819                           	callstack 24
  1820  001CD2                     
  1821                           ;tmr2.c: 67: T2CLKCON = 0x01;
  1822  001CD2  0E01               	movlw	1
  1823  001CD4  6EBF               	movwf	191,c	;volatile
  1824                           
  1825                           ;tmr2.c: 70: T2HLT = 0x00;
  1826  001CD6  0E00               	movlw	0
  1827  001CD8  6EBE               	movwf	190,c	;volatile
  1828                           
  1829                           ;tmr2.c: 73: T2RST = 0x00;
  1830  001CDA  0E00               	movlw	0
  1831  001CDC  6EC0               	movwf	192,c	;volatile
  1832                           
  1833                           ;tmr2.c: 76: T2PR = 0xF9;
  1834  001CDE  0EF9               	movlw	249
  1835  001CE0  6EBC               	movwf	188,c	;volatile
  1836                           
  1837                           ;tmr2.c: 79: T2TMR = 0x00;
  1838  001CE2  0E00               	movlw	0
  1839  001CE4  6EBB               	movwf	187,c	;volatile
  1840  001CE6                     
  1841                           ;tmr2.c: 82: PIR4bits.TMR2IF = 0;
  1842  001CE6  010E               	movlb	14	; () banked
  1843  001CE8  93CE               	bcf	206,1,b	;volatile
  1844                           
  1845                           ;tmr2.c: 85: T2CON = 0xD0;
  1846  001CEA  0ED0               	movlw	208
  1847  001CEC  6EBD               	movwf	189,c	;volatile
  1848  001CEE                     
  1849                           ; BSR set to: 14
  1850  001CEE  0012               	return		;funcret
  1851  001CF0                     __end_of_TMR2_Initialize:
  1852                           	callstack 0
  1853                           
  1854 ;; *************** function _TMR0_Initialize *****************
  1855 ;; Defined at:
  1856 ;;		line 66 in file "mcc_generated_files/tmr0.c"
  1857 ;; Parameters:    Size  Location     Type
  1858 ;;		None
  1859 ;; Auto vars:     Size  Location     Type
  1860 ;;		None
  1861 ;; Return value:  Size  Location     Type
  1862 ;;                  1    wreg      void 
  1863 ;; Registers used:
  1864 ;;		wreg, status,2, status,0, cstack
  1865 ;; Tracked objects:
  1866 ;;		On entry : 0/0
  1867 ;;		On exit  : 0/0
  1868 ;;		Unchanged: 0/0
  1869 ;; Data sizes:     COMRAM   BANK0   BANK1   BANK2   BANK3   BANK4   BANK5   BANK6   BANK7   BANK8   BANK9  BANK10  BANK1
      +1  BANK12  BANK13  BANK14
  1870 ;;      Params:         0       0       0       0       0       0       0       0       0       0       0       0       
      +0       0       0       0
  1871 ;;      Locals:         0       0       0       0       0       0       0       0       0       0       0       0       
      +0       0       0       0
  1872 ;;      Temps:          2       0       0       0       0       0       0       0       0       0       0       0       
      +0       0       0       0
  1873 ;;      Totals:         2       0       0       0       0       0       0       0       0       0       0       0       
      +0       0       0       0
  1874 ;;Total ram usage:        2 bytes
  1875 ;; Hardware stack levels used: 1
  1876 ;; Hardware stack levels required when called: 6
  1877 ;; This function calls:
  1878 ;;		_TMR0_SetInterruptHandler
  1879 ;; This function is called by:
  1880 ;;		_SYSTEM_Initialize
  1881 ;; This function uses a non-reentrant model
  1882 ;;
  1883                           
  1884                           	psect	text8
  1885  001BB6                     __ptext8:
  1886                           	callstack 0
  1887  001BB6                     _TMR0_Initialize:
  1888                           	callstack 23
  1889  001BB6                     
  1890                           ;tmr0.c: 71: T0CON1 = 0x78;
  1891  001BB6  0E78               	movlw	120
  1892  001BB8  6ED6               	movwf	214,c	;volatile
  1893                           
  1894                           ;tmr0.c: 74: TMR0H = 0x0B;
  1895  001BBA  0E0B               	movlw	11
  1896  001BBC  6ED4               	movwf	212,c	;volatile
  1897                           
  1898                           ;tmr0.c: 77: TMR0L = 0xDC;
  1899  001BBE  0EDC               	movlw	220
  1900  001BC0  6ED3               	movwf	211,c	;volatile
  1901  001BC2                     
  1902                           ;tmr0.c: 80: timer0ReloadVal16bit = (TMR0H << 8) | TMR0L;
  1903  001BC2  50D3               	movf	211,w,c	;volatile
  1904  001BC4  CFD4 F009          	movff	4052,??_TMR0_Initialize	;volatile
  1905  001BC8  6A0A               	clrf	(??_TMR0_Initialize+1)^0,c
  1906  001BCA  C009  F00A         	movff	??_TMR0_Initialize,??_TMR0_Initialize+1
  1907  001BCE  6A09               	clrf	??_TMR0_Initialize^0,c
  1908  001BD0  1009               	iorwf	??_TMR0_Initialize^0,w,c
  1909  001BD2  6E44               	movwf	_timer0ReloadVal16bit^0,c	;volatile
  1910  001BD4  500A               	movf	(??_TMR0_Initialize+1)^0,w,c
  1911  001BD6  6E45               	movwf	(_timer0ReloadVal16bit+1)^0,c	;volatile
  1912  001BD8                     
  1913                           ;tmr0.c: 83: PIR0bits.TMR0IF = 0;
  1914  001BD8  010E               	movlb	14	; () banked
  1915  001BDA  9BCA               	bcf	202,5,b	;volatile
  1916  001BDC                     
  1917                           ; BSR set to: 14
  1918                           ;tmr0.c: 86: PIE0bits.TMR0IE = 1;
  1919  001BDC  8BC2               	bsf	194,5,b	;volatile
  1920  001BDE                     
  1921                           ; BSR set to: 14
  1922                           ;tmr0.c: 89: TMR0_SetInterruptHandler(TMR0_DefaultInterruptHandler);
  1923  001BDE  0E4C               	movlw	low _TMR0_DefaultInterruptHandler
  1924  001BE0  6E07               	movwf	TMR0_SetInterruptHandler@InterruptHandler^0,c
  1925  001BE2  0E1E               	movlw	high _TMR0_DefaultInterruptHandler
  1926  001BE4  6E08               	movwf	(TMR0_SetInterruptHandler@InterruptHandler+1)^0,c
  1927  001BE6  ECFD  F00E         	call	_TMR0_SetInterruptHandler	;wreg free
  1928  001BEA                     
  1929                           ;tmr0.c: 92: T0CON0 = 0x90;
  1930  001BEA  0E90               	movlw	144
  1931  001BEC  6ED5               	movwf	213,c	;volatile
  1932  001BEE  0012               	return		;funcret
  1933  001BF0                     __end_of_TMR0_Initialize:
  1934                           	callstack 0
  1935                           
  1936 ;; *************** function _TMR0_SetInterruptHandler *****************
  1937 ;; Defined at:
  1938 ;;		line 159 in file "mcc_generated_files/tmr0.c"
  1939 ;; Parameters:    Size  Location     Type
  1940 ;;  InterruptHan    2    6[COMRAM] PTR FTN()void 
  1941 ;;		 -> myTimer0ISR(1), TMR0_DefaultInterruptHandler(1), 
  1942 ;; Auto vars:     Size  Location     Type
  1943 ;;		None
  1944 ;; Return value:  Size  Location     Type
  1945 ;;                  1    wreg      void 
  1946 ;; Registers used:
  1947 ;;		wreg, status,2, status,0
  1948 ;; Tracked objects:
  1949 ;;		On entry : 0/0
  1950 ;;		On exit  : 0/0
  1951 ;;		Unchanged: 0/0
  1952 ;; Data sizes:     COMRAM   BANK0   BANK1   BANK2   BANK3   BANK4   BANK5   BANK6   BANK7   BANK8   BANK9  BANK10  BANK1
      +1  BANK12  BANK13  BANK14
  1953 ;;      Params:         2       0       0       0       0       0       0       0       0       0       0       0       
      +0       0       0       0
  1954 ;;      Locals:         0       0       0       0       0       0       0       0       0       0       0       0       
      +0       0       0       0
  1955 ;;      Temps:          0       0       0       0       0       0       0       0       0       0       0       0       
      +0       0       0       0
  1956 ;;      Totals:         2       0       0       0       0       0       0       0       0       0       0       0       
      +0       0       0       0
  1957 ;;Total ram usage:        2 bytes
  1958 ;; Hardware stack levels used: 1
  1959 ;; Hardware stack levels required when called: 5
  1960 ;; This function calls:
  1961 ;;		Nothing
  1962 ;; This function is called by:
  1963 ;;		_TMR0_Initialize
  1964 ;;		_main
  1965 ;; This function uses a non-reentrant model
  1966 ;;
  1967                           
  1968                           	psect	text9
  1969  001DFA                     __ptext9:
  1970                           	callstack 0
  1971  001DFA                     _TMR0_SetInterruptHandler:
  1972                           	callstack 25
  1973  001DFA                     
  1974                           ;tmr0.c: 160: TMR0_InterruptHandler = InterruptHandler;
  1975  001DFA  C007  F042         	movff	TMR0_SetInterruptHandler@InterruptHandler,_TMR0_InterruptHandler
  1976  001DFE  C008  F043         	movff	TMR0_SetInterruptHandler@InterruptHandler+1,_TMR0_InterruptHandler+1
  1977  001E02  0012               	return		;funcret
  1978  001E04                     __end_of_TMR0_SetInterruptHandler:
  1979                           	callstack 0
  1980                           
  1981 ;; *************** function _PWM2_Initialize *****************
  1982 ;; Defined at:
  1983 ;;		line 64 in file "mcc_generated_files/pwm2.c"
  1984 ;; Parameters:    Size  Location     Type
  1985 ;;		None
  1986 ;; Auto vars:     Size  Location     Type
  1987 ;;		None
  1988 ;; Return value:  Size  Location     Type
  1989 ;;                  1    wreg      void 
  1990 ;; Registers used:
  1991 ;;		wreg, status,2
  1992 ;; Tracked objects:
  1993 ;;		On entry : 0/0
  1994 ;;		On exit  : 0/0
  1995 ;;		Unchanged: 0/0
  1996 ;; Data sizes:     COMRAM   BANK0   BANK1   BANK2   BANK3   BANK4   BANK5   BANK6   BANK7   BANK8   BANK9  BANK10  BANK1
      +1  BANK12  BANK13  BANK14
  1997 ;;      Params:         0       0       0       0       0       0       0       0       0       0       0       0       
      +0       0       0       0
  1998 ;;      Locals:         0       0       0       0       0       0       0       0       0       0       0       0       
      +0       0       0       0
  1999 ;;      Temps:          0       0       0       0       0       0       0       0       0       0       0       0       
      +0       0       0       0
  2000 ;;      Totals:         0       0       0       0       0       0       0       0       0       0       0       0       
      +0       0       0       0
  2001 ;;Total ram usage:        0 bytes
  2002 ;; Hardware stack levels used: 1
  2003 ;; Hardware stack levels required when called: 5
  2004 ;; This function calls:
  2005 ;;		Nothing
  2006 ;; This function is called by:
  2007 ;;		_SYSTEM_Initialize
  2008 ;; This function uses a non-reentrant model
  2009 ;;
  2010                           
  2011                           	psect	text10
  2012  001D3C                     __ptext10:
  2013                           	callstack 0
  2014  001D3C                     _PWM2_Initialize:
  2015                           	callstack 24
  2016  001D3C                     
  2017                           ;pwm2.c: 69: CCP2CON = 0x8C;
  2018  001D3C  0E8C               	movlw	140
  2019  001D3E  6EA8               	movwf	168,c	;volatile
  2020                           
  2021                           ;pwm2.c: 72: CCPR2H = 0x00;
  2022  001D40  0E00               	movlw	0
  2023  001D42  6EA7               	movwf	167,c	;volatile
  2024                           
  2025                           ;pwm2.c: 75: CCPR2L = 0x95;
  2026  001D44  0E95               	movlw	149
  2027  001D46  6EA6               	movwf	166,c	;volatile
  2028                           
  2029                           ;pwm2.c: 78: CCPTMRSbits.C2TSEL = 0x1;
  2030  001D48  50AE               	movf	174,w,c	;volatile
  2031  001D4A  0BF3               	andlw	-13
  2032  001D4C  0904               	iorlw	4
  2033  001D4E  6EAE               	movwf	174,c	;volatile
  2034  001D50  0012               	return		;funcret
  2035  001D52                     __end_of_PWM2_Initialize:
  2036                           	callstack 0
  2037                           
  2038 ;; *************** function _PWM1_Initialize *****************
  2039 ;; Defined at:
  2040 ;;		line 64 in file "mcc_generated_files/pwm1.c"
  2041 ;; Parameters:    Size  Location     Type
  2042 ;;		None
  2043 ;; Auto vars:     Size  Location     Type
  2044 ;;		None
  2045 ;; Return value:  Size  Location     Type
  2046 ;;                  1    wreg      void 
  2047 ;; Registers used:
  2048 ;;		wreg, status,2
  2049 ;; Tracked objects:
  2050 ;;		On entry : 0/0
  2051 ;;		On exit  : 0/0
  2052 ;;		Unchanged: 0/0
  2053 ;; Data sizes:     COMRAM   BANK0   BANK1   BANK2   BANK3   BANK4   BANK5   BANK6   BANK7   BANK8   BANK9  BANK10  BANK1
      +1  BANK12  BANK13  BANK14
  2054 ;;      Params:         0       0       0       0       0       0       0       0       0       0       0       0       
      +0       0       0       0
  2055 ;;      Locals:         0       0       0       0       0       0       0       0       0       0       0       0       
      +0       0       0       0
  2056 ;;      Temps:          0       0       0       0       0       0       0       0       0       0       0       0       
      +0       0       0       0
  2057 ;;      Totals:         0       0       0       0       0       0       0       0       0       0       0       0       
      +0       0       0       0
  2058 ;;Total ram usage:        0 bytes
  2059 ;; Hardware stack levels used: 1
  2060 ;; Hardware stack levels required when called: 5
  2061 ;; This function calls:
  2062 ;;		Nothing
  2063 ;; This function is called by:
  2064 ;;		_SYSTEM_Initialize
  2065 ;; This function uses a non-reentrant model
  2066 ;;
  2067                           
  2068                           	psect	text11
  2069  001D52                     __ptext11:
  2070                           	callstack 0
  2071  001D52                     _PWM1_Initialize:
  2072                           	callstack 24
  2073  001D52                     
  2074                           ;pwm1.c: 69: CCP1CON = 0x8C;
  2075  001D52  0E8C               	movlw	140
  2076  001D54  6EAC               	movwf	172,c	;volatile
  2077                           
  2078                           ;pwm1.c: 72: CCPR1H = 0x00;
  2079  001D56  0E00               	movlw	0
  2080  001D58  6EAB               	movwf	171,c	;volatile
  2081                           
  2082                           ;pwm1.c: 75: CCPR1L = 0x95;
  2083  001D5A  0E95               	movlw	149
  2084  001D5C  6EAA               	movwf	170,c	;volatile
  2085                           
  2086                           ;pwm1.c: 78: CCPTMRSbits.C1TSEL = 0x1;
  2087  001D5E  50AE               	movf	174,w,c	;volatile
  2088  001D60  0BFC               	andlw	-4
  2089  001D62  0901               	iorlw	1
  2090  001D64  6EAE               	movwf	174,c	;volatile
  2091  001D66  0012               	return		;funcret
  2092  001D68                     __end_of_PWM1_Initialize:
  2093                           	callstack 0
  2094                           
  2095 ;; *************** function _PMD_Initialize *****************
  2096 ;; Defined at:
  2097 ;;		line 79 in file "mcc_generated_files/mcc.c"
  2098 ;; Parameters:    Size  Location     Type
  2099 ;;		None
  2100 ;; Auto vars:     Size  Location     Type
  2101 ;;		None
  2102 ;; Return value:  Size  Location     Type
  2103 ;;                  1    wreg      void 
  2104 ;; Registers used:
  2105 ;;		wreg, status,2
  2106 ;; Tracked objects:
  2107 ;;		On entry : 0/0
  2108 ;;		On exit  : 0/0
  2109 ;;		Unchanged: 0/0
  2110 ;; Data sizes:     COMRAM   BANK0   BANK1   BANK2   BANK3   BANK4   BANK5   BANK6   BANK7   BANK8   BANK9  BANK10  BANK1
      +1  BANK12  BANK13  BANK14
  2111 ;;      Params:         0       0       0       0       0       0       0       0       0       0       0       0       
      +0       0       0       0
  2112 ;;      Locals:         0       0       0       0       0       0       0       0       0       0       0       0       
      +0       0       0       0
  2113 ;;      Temps:          0       0       0       0       0       0       0       0       0       0       0       0       
      +0       0       0       0
  2114 ;;      Totals:         0       0       0       0       0       0       0       0       0       0       0       0       
      +0       0       0       0
  2115 ;;Total ram usage:        0 bytes
  2116 ;; Hardware stack levels used: 1
  2117 ;; Hardware stack levels required when called: 5
  2118 ;; This function calls:
  2119 ;;		Nothing
  2120 ;; This function is called by:
  2121 ;;		_SYSTEM_Initialize
  2122 ;; This function uses a non-reentrant model
  2123 ;;
  2124                           
  2125                           	psect	text12
  2126  001CF0                     __ptext12:
  2127                           	callstack 0
  2128  001CF0                     _PMD_Initialize:
  2129                           	callstack 24
  2130  001CF0                     
  2131                           ;mcc.c: 82: PMD0 = 0x00;
  2132  001CF0  0E00               	movlw	0
  2133  001CF2  010E               	movlb	14	; () banked
  2134  001CF4  6FE1               	movwf	225,b	;volatile
  2135                           
  2136                           ;mcc.c: 84: PMD1 = 0x00;
  2137  001CF6  0E00               	movlw	0
  2138  001CF8  6FE2               	movwf	226,b	;volatile
  2139                           
  2140                           ;mcc.c: 86: PMD2 = 0x00;
  2141  001CFA  0E00               	movlw	0
  2142  001CFC  6FE3               	movwf	227,b	;volatile
  2143                           
  2144                           ;mcc.c: 88: PMD3 = 0x00;
  2145  001CFE  0E00               	movlw	0
  2146  001D00  6FE4               	movwf	228,b	;volatile
  2147                           
  2148                           ;mcc.c: 90: PMD4 = 0x00;
  2149  001D02  0E00               	movlw	0
  2150  001D04  6FE5               	movwf	229,b	;volatile
  2151                           
  2152                           ;mcc.c: 92: PMD5 = 0x00;
  2153  001D06  0E00               	movlw	0
  2154  001D08  6FE6               	movwf	230,b	;volatile
  2155  001D0A                     
  2156                           ; BSR set to: 14
  2157  001D0A  0012               	return		;funcret
  2158  001D0C                     __end_of_PMD_Initialize:
  2159                           	callstack 0
  2160                           
  2161 ;; *************** function _PIN_MANAGER_Initialize *****************
  2162 ;; Defined at:
  2163 ;;		line 57 in file "mcc_generated_files/pin_manager.c"
  2164 ;; Parameters:    Size  Location     Type
  2165 ;;		None
  2166 ;; Auto vars:     Size  Location     Type
  2167 ;;		None
  2168 ;; Return value:  Size  Location     Type
  2169 ;;                  1    wreg      void 
  2170 ;; Registers used:
  2171 ;;		wreg, status,2, status,0, cstack
  2172 ;; Tracked objects:
  2173 ;;		On entry : 0/0
  2174 ;;		On exit  : 0/0
  2175 ;;		Unchanged: 0/0
  2176 ;; Data sizes:     COMRAM   BANK0   BANK1   BANK2   BANK3   BANK4   BANK5   BANK6   BANK7   BANK8   BANK9  BANK10  BANK1
      +1  BANK12  BANK13  BANK14
  2177 ;;      Params:         0       0       0       0       0       0       0       0       0       0       0       0       
      +0       0       0       0
  2178 ;;      Locals:         0       0       0       0       0       0       0       0       0       0       0       0       
      +0       0       0       0
  2179 ;;      Temps:          0       0       0       0       0       0       0       0       0       0       0       0       
      +0       0       0       0
  2180 ;;      Totals:         0       0       0       0       0       0       0       0       0       0       0       0       
      +0       0       0       0
  2181 ;;Total ram usage:        0 bytes
  2182 ;; Hardware stack levels used: 1
  2183 ;; Hardware stack levels required when called: 6
  2184 ;; This function calls:
  2185 ;;		_IOCBF4_SetInterruptHandler
  2186 ;; This function is called by:
  2187 ;;		_SYSTEM_Initialize
  2188 ;; This function uses a non-reentrant model
  2189 ;;
  2190                           
  2191                           	psect	text13
  2192  001882                     __ptext13:
  2193                           	callstack 0
  2194  001882                     _PIN_MANAGER_Initialize:
  2195                           	callstack 23
  2196  001882                     
  2197                           ;pin_manager.c: 62: LATA = 0x00;
  2198  001882  0E00               	movlw	0
  2199  001884  6E83               	movwf	131,c	;volatile
  2200                           
  2201                           ;pin_manager.c: 63: LATB = 0x00;
  2202  001886  0E00               	movlw	0
  2203  001888  6E84               	movwf	132,c	;volatile
  2204                           
  2205                           ;pin_manager.c: 64: LATC = 0x00;
  2206  00188A  0E00               	movlw	0
  2207  00188C  6E85               	movwf	133,c	;volatile
  2208                           
  2209                           ;pin_manager.c: 69: TRISA = 0xFE;
  2210  00188E  0EFE               	movlw	254
  2211  001890  6E88               	movwf	136,c	;volatile
  2212                           
  2213                           ;pin_manager.c: 70: TRISB = 0xDF;
  2214  001892  0EDF               	movlw	223
  2215  001894  6E89               	movwf	137,c	;volatile
  2216                           
  2217                           ;pin_manager.c: 71: TRISC = 0xB3;
  2218  001896  0EB3               	movlw	179
  2219  001898  6E8A               	movwf	138,c	;volatile
  2220                           
  2221                           ;pin_manager.c: 76: ANSELC = 0x63;
  2222  00189A  0E63               	movlw	99
  2223  00189C  010F               	movlb	15	; () banked
  2224  00189E  6F21               	movwf	33,b	;volatile
  2225                           
  2226                           ;pin_manager.c: 77: ANSELB = 0xCF;
  2227  0018A0  0ECF               	movlw	207
  2228  0018A2  6F19               	movwf	25,b	;volatile
  2229                           
  2230                           ;pin_manager.c: 78: ANSELA = 0xFE;
  2231  0018A4  0EFE               	movlw	254
  2232  0018A6  6F11               	movwf	17,b	;volatile
  2233                           
  2234                           ;pin_manager.c: 83: WPUE = 0x00;
  2235  0018A8  0E00               	movlw	0
  2236  0018AA  6F2D               	movwf	45,b	;volatile
  2237                           
  2238                           ;pin_manager.c: 84: WPUB = 0x10;
  2239  0018AC  0E10               	movlw	16
  2240  0018AE  6F18               	movwf	24,b	;volatile
  2241                           
  2242                           ;pin_manager.c: 85: WPUA = 0x00;
  2243  0018B0  0E00               	movlw	0
  2244  0018B2  6F10               	movwf	16,b	;volatile
  2245                           
  2246                           ;pin_manager.c: 86: WPUC = 0x00;
  2247  0018B4  0E00               	movlw	0
  2248  0018B6  6F20               	movwf	32,b	;volatile
  2249                           
  2250                           ;pin_manager.c: 91: ODCONA = 0x00;
  2251  0018B8  0E00               	movlw	0
  2252  0018BA  6F0F               	movwf	15,b	;volatile
  2253                           
  2254                           ;pin_manager.c: 92: ODCONB = 0x00;
  2255  0018BC  0E00               	movlw	0
  2256  0018BE  6F17               	movwf	23,b	;volatile
  2257                           
  2258                           ;pin_manager.c: 93: ODCONC = 0x00;
  2259  0018C0  0E00               	movlw	0
  2260  0018C2  6F1F               	movwf	31,b	;volatile
  2261  0018C4                     
  2262                           ; BSR set to: 15
  2263                           ;pin_manager.c: 98: SLRCONA = 0xFF;
  2264  0018C4  690E               	setf	14,b	;volatile
  2265  0018C6                     
  2266                           ; BSR set to: 15
  2267                           ;pin_manager.c: 99: SLRCONB = 0xFF;
  2268  0018C6  6916               	setf	22,b	;volatile
  2269  0018C8                     
  2270                           ; BSR set to: 15
  2271                           ;pin_manager.c: 100: SLRCONC = 0xFF;
  2272  0018C8  691E               	setf	30,b	;volatile
  2273  0018CA                     
  2274                           ; BSR set to: 15
  2275                           ;pin_manager.c: 105: INLVLA = 0xFF;
  2276  0018CA  690D               	setf	13,b	;volatile
  2277  0018CC                     
  2278                           ; BSR set to: 15
  2279                           ;pin_manager.c: 106: INLVLB = 0xFF;
  2280  0018CC  6915               	setf	21,b	;volatile
  2281  0018CE                     
  2282                           ; BSR set to: 15
  2283                           ;pin_manager.c: 107: INLVLC = 0xFF;
  2284  0018CE  691D               	setf	29,b	;volatile
  2285                           
  2286                           ;pin_manager.c: 108: INLVLE = 0x08;
  2287  0018D0  0E08               	movlw	8
  2288  0018D2  6F2A               	movwf	42,b	;volatile
  2289  0018D4                     
  2290                           ; BSR set to: 15
  2291                           ;pin_manager.c: 115: IOCBFbits.IOCBF4 = 0;
  2292  0018D4  9912               	bcf	18,4,b	;volatile
  2293  0018D6                     
  2294                           ; BSR set to: 15
  2295                           ;pin_manager.c: 117: IOCBNbits.IOCBN4 = 1;
  2296  0018D6  8913               	bsf	19,4,b	;volatile
  2297  0018D8                     
  2298                           ; BSR set to: 15
  2299                           ;pin_manager.c: 119: IOCBPbits.IOCBP4 = 1;
  2300  0018D8  8914               	bsf	20,4,b	;volatile
  2301  0018DA                     
  2302                           ; BSR set to: 15
  2303                           ;pin_manager.c: 124: IOCBF4_SetInterruptHandler(IOCBF4_DefaultInterruptHandler);
  2304  0018DA  0E4E               	movlw	low _IOCBF4_DefaultInterruptHandler
  2305  0018DC  6E07               	movwf	IOCBF4_SetInterruptHandler@InterruptHandler^0,c
  2306  0018DE  0E1E               	movlw	high _IOCBF4_DefaultInterruptHandler
  2307  0018E0  6E08               	movwf	(IOCBF4_SetInterruptHandler@InterruptHandler+1)^0,c
  2308  0018E2  EC02  F00F         	call	_IOCBF4_SetInterruptHandler	;wreg free
  2309  0018E6                     
  2310                           ;pin_manager.c: 127: PIE0bits.IOCIE = 1;
  2311  0018E6  010E               	movlb	14	; () banked
  2312  0018E8  89C2               	bsf	194,4,b	;volatile
  2313  0018EA                     
  2314                           ; BSR set to: 14
  2315                           ;pin_manager.c: 130: RX1PPS = 0x17;
  2316  0018EA  0E17               	movlw	23
  2317  0018EC  6FB5               	movwf	181,b	;volatile
  2318  0018EE                     
  2319                           ; BSR set to: 14
  2320                           ;pin_manager.c: 131: RB5PPS = 0x05;
  2321  0018EE  0E05               	movlw	5
  2322  0018F0  6FF4               	movwf	244,b	;volatile
  2323  0018F2                     
  2324                           ; BSR set to: 14
  2325                           ;pin_manager.c: 132: RC6PPS = 0x09;
  2326  0018F2  0E09               	movlw	9
  2327  0018F4  6FFD               	movwf	253,b	;volatile
  2328  0018F6                     
  2329                           ; BSR set to: 14
  2330  0018F6  0012               	return		;funcret
  2331  0018F8                     __end_of_PIN_MANAGER_Initialize:
  2332                           	callstack 0
  2333                           
  2334 ;; *************** function _IOCBF4_SetInterruptHandler *****************
  2335 ;; Defined at:
  2336 ;;		line 162 in file "mcc_generated_files/pin_manager.c"
  2337 ;; Parameters:    Size  Location     Type
  2338 ;;  InterruptHan    2    6[COMRAM] PTR FTN()void 
  2339 ;;		 -> IOCBF4_DefaultInterruptHandler(1), 
  2340 ;; Auto vars:     Size  Location     Type
  2341 ;;		None
  2342 ;; Return value:  Size  Location     Type
  2343 ;;                  1    wreg      void 
  2344 ;; Registers used:
  2345 ;;		wreg, status,2, status,0
  2346 ;; Tracked objects:
  2347 ;;		On entry : 0/0
  2348 ;;		On exit  : 0/0
  2349 ;;		Unchanged: 0/0
  2350 ;; Data sizes:     COMRAM   BANK0   BANK1   BANK2   BANK3   BANK4   BANK5   BANK6   BANK7   BANK8   BANK9  BANK10  BANK1
      +1  BANK12  BANK13  BANK14
  2351 ;;      Params:         2       0       0       0       0       0       0       0       0       0       0       0       
      +0       0       0       0
  2352 ;;      Locals:         0       0       0       0       0       0       0       0       0       0       0       0       
      +0       0       0       0
  2353 ;;      Temps:          0       0       0       0       0       0       0       0       0       0       0       0       
      +0       0       0       0
  2354 ;;      Totals:         2       0       0       0       0       0       0       0       0       0       0       0       
      +0       0       0       0
  2355 ;;Total ram usage:        2 bytes
  2356 ;; Hardware stack levels used: 1
  2357 ;; Hardware stack levels required when called: 5
  2358 ;; This function calls:
  2359 ;;		Nothing
  2360 ;; This function is called by:
  2361 ;;		_PIN_MANAGER_Initialize
  2362 ;; This function uses a non-reentrant model
  2363 ;;
  2364                           
  2365                           	psect	text14
  2366  001E04                     __ptext14:
  2367                           	callstack 0
  2368  001E04                     _IOCBF4_SetInterruptHandler:
  2369                           	callstack 23
  2370  001E04                     
  2371                           ;pin_manager.c: 163: IOCBF4_InterruptHandler = InterruptHandler;
  2372  001E04  C007  F046         	movff	IOCBF4_SetInterruptHandler@InterruptHandler,_IOCBF4_InterruptHandler
  2373  001E08  C008  F047         	movff	IOCBF4_SetInterruptHandler@InterruptHandler+1,_IOCBF4_InterruptHandler+1
  2374  001E0C  0012               	return		;funcret
  2375  001E0E                     __end_of_IOCBF4_SetInterruptHandler:
  2376                           	callstack 0
  2377                           
  2378 ;; *************** function _OSCILLATOR_Initialize *****************
  2379 ;; Defined at:
  2380 ;;		line 65 in file "mcc_generated_files/mcc.c"
  2381 ;; Parameters:    Size  Location     Type
  2382 ;;		None
  2383 ;; Auto vars:     Size  Location     Type
  2384 ;;		None
  2385 ;; Return value:  Size  Location     Type
  2386 ;;                  1    wreg      void 
  2387 ;; Registers used:
  2388 ;;		wreg, status,2
  2389 ;; Tracked objects:
  2390 ;;		On entry : 0/0
  2391 ;;		On exit  : 0/0
  2392 ;;		Unchanged: 0/0
  2393 ;; Data sizes:     COMRAM   BANK0   BANK1   BANK2   BANK3   BANK4   BANK5   BANK6   BANK7   BANK8   BANK9  BANK10  BANK1
      +1  BANK12  BANK13  BANK14
  2394 ;;      Params:         0       0       0       0       0       0       0       0       0       0       0       0       
      +0       0       0       0
  2395 ;;      Locals:         0       0       0       0       0       0       0       0       0       0       0       0       
      +0       0       0       0
  2396 ;;      Temps:          0       0       0       0       0       0       0       0       0       0       0       0       
      +0       0       0       0
  2397 ;;      Totals:         0       0       0       0       0       0       0       0       0       0       0       0       
      +0       0       0       0
  2398 ;;Total ram usage:        0 bytes
  2399 ;; Hardware stack levels used: 1
  2400 ;; Hardware stack levels required when called: 5
  2401 ;; This function calls:
  2402 ;;		Nothing
  2403 ;; This function is called by:
  2404 ;;		_SYSTEM_Initialize
  2405 ;; This function uses a non-reentrant model
  2406 ;;
  2407                           
  2408                           	psect	text15
  2409  001D0C                     __ptext15:
  2410                           	callstack 0
  2411  001D0C                     _OSCILLATOR_Initialize:
  2412                           	callstack 24
  2413  001D0C                     
  2414                           ;mcc.c: 68: OSCCON1 = 0x61;
  2415  001D0C  0E61               	movlw	97
  2416  001D0E  010E               	movlb	14	; () banked
  2417  001D10  6FD8               	movwf	216,b	;volatile
  2418                           
  2419                           ;mcc.c: 70: OSCCON3 = 0x00;
  2420  001D12  0E00               	movlw	0
  2421  001D14  6FDA               	movwf	218,b	;volatile
  2422                           
  2423                           ;mcc.c: 72: OSCEN = 0x00;
  2424  001D16  0E00               	movlw	0
  2425  001D18  6FDC               	movwf	220,b	;volatile
  2426                           
  2427                           ;mcc.c: 74: OSCFRQ = 0x05;
  2428  001D1A  0E05               	movlw	5
  2429  001D1C  6FDE               	movwf	222,b	;volatile
  2430                           
  2431                           ;mcc.c: 76: OSCTUNE = 0x00;
  2432  001D1E  0E00               	movlw	0
  2433  001D20  6FDD               	movwf	221,b	;volatile
  2434  001D22                     
  2435                           ; BSR set to: 14
  2436  001D22  0012               	return		;funcret
  2437  001D24                     __end_of_OSCILLATOR_Initialize:
  2438                           	callstack 0
  2439                           
  2440 ;; *************** function _INTERRUPT_Initialize *****************
  2441 ;; Defined at:
  2442 ;;		line 52 in file "mcc_generated_files/interrupt_manager.c"
  2443 ;; Parameters:    Size  Location     Type
  2444 ;;		None
  2445 ;; Auto vars:     Size  Location     Type
  2446 ;;		None
  2447 ;; Return value:  Size  Location     Type
  2448 ;;                  1    wreg      void 
  2449 ;; Registers used:
  2450 ;;		None
  2451 ;; Tracked objects:
  2452 ;;		On entry : 0/0
  2453 ;;		On exit  : 0/0
  2454 ;;		Unchanged: 0/0
  2455 ;; Data sizes:     COMRAM   BANK0   BANK1   BANK2   BANK3   BANK4   BANK5   BANK6   BANK7   BANK8   BANK9  BANK10  BANK1
      +1  BANK12  BANK13  BANK14
  2456 ;;      Params:         0       0       0       0       0       0       0       0       0       0       0       0       
      +0       0       0       0
  2457 ;;      Locals:         0       0       0       0       0       0       0       0       0       0       0       0       
      +0       0       0       0
  2458 ;;      Temps:          0       0       0       0       0       0       0       0       0       0       0       0       
      +0       0       0       0
  2459 ;;      Totals:         0       0       0       0       0       0       0       0       0       0       0       0       
      +0       0       0       0
  2460 ;;Total ram usage:        0 bytes
  2461 ;; Hardware stack levels used: 1
  2462 ;; Hardware stack levels required when called: 5
  2463 ;; This function calls:
  2464 ;;		Nothing
  2465 ;; This function is called by:
  2466 ;;		_SYSTEM_Initialize
  2467 ;; This function uses a non-reentrant model
  2468 ;;
  2469                           
  2470                           	psect	text16
  2471  001E48                     __ptext16:
  2472                           	callstack 0
  2473  001E48                     _INTERRUPT_Initialize:
  2474                           	callstack 24
  2475  001E48                     
  2476                           ;interrupt_manager.c: 55: INTCONbits.IPEN = 0;
  2477  001E48  9AF2               	bcf	242,5,c	;volatile
  2478  001E4A  0012               	return		;funcret
  2479  001E4C                     __end_of_INTERRUPT_Initialize:
  2480                           	callstack 0
  2481                           
  2482 ;; *************** function _EUSART1_Initialize *****************
  2483 ;; Defined at:
  2484 ;;		line 66 in file "mcc_generated_files/eusart1.c"
  2485 ;; Parameters:    Size  Location     Type
  2486 ;;		None
  2487 ;; Auto vars:     Size  Location     Type
  2488 ;;		None
  2489 ;; Return value:  Size  Location     Type
  2490 ;;                  1    wreg      void 
  2491 ;; Registers used:
  2492 ;;		wreg, status,2, status,0, cstack
  2493 ;; Tracked objects:
  2494 ;;		On entry : 0/0
  2495 ;;		On exit  : 0/0
  2496 ;;		Unchanged: 0/0
  2497 ;; Data sizes:     COMRAM   BANK0   BANK1   BANK2   BANK3   BANK4   BANK5   BANK6   BANK7   BANK8   BANK9  BANK10  BANK1
      +1  BANK12  BANK13  BANK14
  2498 ;;      Params:         0       0       0       0       0       0       0       0       0       0       0       0       
      +0       0       0       0
  2499 ;;      Locals:         0       0       0       0       0       0       0       0       0       0       0       0       
      +0       0       0       0
  2500 ;;      Temps:          0       0       0       0       0       0       0       0       0       0       0       0       
      +0       0       0       0
  2501 ;;      Totals:         0       0       0       0       0       0       0       0       0       0       0       0       
      +0       0       0       0
  2502 ;;Total ram usage:        0 bytes
  2503 ;; Hardware stack levels used: 1
  2504 ;; Hardware stack levels required when called: 6
  2505 ;; This function calls:
  2506 ;;		_EUSART1_SetErrorHandler
  2507 ;;		_EUSART1_SetFramingErrorHandler
  2508 ;;		_EUSART1_SetOverrunErrorHandler
  2509 ;; This function is called by:
  2510 ;;		_SYSTEM_Initialize
  2511 ;; This function uses a non-reentrant model
  2512 ;;
  2513                           
  2514                           	psect	text17
  2515  001B78                     __ptext17:
  2516                           	callstack 0
  2517  001B78                     _EUSART1_Initialize:
  2518                           	callstack 23
  2519  001B78                     
  2520                           ;eusart1.c: 71: BAUD1CON = 0x08;
  2521  001B78  0E08               	movlw	8
  2522  001B7A  6E9F               	movwf	159,c	;volatile
  2523                           
  2524                           ;eusart1.c: 74: RC1STA = 0x90;
  2525  001B7C  0E90               	movlw	144
  2526  001B7E  6E9D               	movwf	157,c	;volatile
  2527                           
  2528                           ;eusart1.c: 77: TX1STA = 0x24;
  2529  001B80  0E24               	movlw	36
  2530  001B82  6E9E               	movwf	158,c	;volatile
  2531                           
  2532                           ;eusart1.c: 80: SP1BRGL = 0xCF;
  2533  001B84  0ECF               	movlw	207
  2534  001B86  6E9B               	movwf	155,c	;volatile
  2535                           
  2536                           ;eusart1.c: 83: SP1BRGH = 0x00;
  2537  001B88  0E00               	movlw	0
  2538  001B8A  6E9C               	movwf	156,c	;volatile
  2539  001B8C                     
  2540                           ;eusart1.c: 86: EUSART1_SetFramingErrorHandler(EUSART1_DefaultFramingErrorHandler);
  2541  001B8C  0E00               	movlw	0
  2542  001B8E  6E07               	movwf	EUSART1_SetFramingErrorHandler@interruptHandler^0,c
  2543  001B90  0E00               	movlw	0
  2544  001B92  6E08               	movwf	(EUSART1_SetFramingErrorHandler@interruptHandler+1)^0,c
  2545  001B94  EC0C  F00F         	call	_EUSART1_SetFramingErrorHandler	;wreg free
  2546  001B98                     
  2547                           ;eusart1.c: 87: EUSART1_SetOverrunErrorHandler(EUSART1_DefaultOverrunErrorHandler);
  2548  001B98  0E00               	movlw	0
  2549  001B9A  6E07               	movwf	EUSART1_SetOverrunErrorHandler@interruptHandler^0,c
  2550  001B9C  0E00               	movlw	0
  2551  001B9E  6E08               	movwf	(EUSART1_SetOverrunErrorHandler@interruptHandler+1)^0,c
  2552  001BA0  EC07  F00F         	call	_EUSART1_SetOverrunErrorHandler	;wreg free
  2553  001BA4                     
  2554                           ;eusart1.c: 88: EUSART1_SetErrorHandler(EUSART1_DefaultErrorHandler);
  2555  001BA4  0E00               	movlw	0
  2556  001BA6  6E07               	movwf	EUSART1_SetErrorHandler@interruptHandler^0,c
  2557  001BA8  0E00               	movlw	0
  2558  001BAA  6E08               	movwf	(EUSART1_SetErrorHandler@interruptHandler+1)^0,c
  2559  001BAC  EC11  F00F         	call	_EUSART1_SetErrorHandler	;wreg free
  2560  001BB0                     
  2561                           ;eusart1.c: 90: eusart1RxLastError.status = 0;
  2562  001BB0  0E00               	movlw	0
  2563  001BB2  6E4C               	movwf	_eusart1RxLastError^0,c	;volatile
  2564  001BB4  0012               	return		;funcret
  2565  001BB6                     __end_of_EUSART1_Initialize:
  2566                           	callstack 0
  2567                           
  2568 ;; *************** function _EUSART1_SetOverrunErrorHandler *****************
  2569 ;; Defined at:
  2570 ;;		line 170 in file "mcc_generated_files/eusart1.c"
  2571 ;; Parameters:    Size  Location     Type
  2572 ;;  interruptHan    2    6[COMRAM] PTR FTN()void 
  2573 ;;		 -> EUSART1_DefaultOverrunErrorHandler(1), 
  2574 ;; Auto vars:     Size  Location     Type
  2575 ;;		None
  2576 ;; Return value:  Size  Location     Type
  2577 ;;                  1    wreg      void 
  2578 ;; Registers used:
  2579 ;;		wreg, status,2, status,0
  2580 ;; Tracked objects:
  2581 ;;		On entry : 0/0
  2582 ;;		On exit  : 0/0
  2583 ;;		Unchanged: 0/0
  2584 ;; Data sizes:     COMRAM   BANK0   BANK1   BANK2   BANK3   BANK4   BANK5   BANK6   BANK7   BANK8   BANK9  BANK10  BANK1
      +1  BANK12  BANK13  BANK14
  2585 ;;      Params:         2       0       0       0       0       0       0       0       0       0       0       0       
      +0       0       0       0
  2586 ;;      Locals:         0       0       0       0       0       0       0       0       0       0       0       0       
      +0       0       0       0
  2587 ;;      Temps:          0       0       0       0       0       0       0       0       0       0       0       0       
      +0       0       0       0
  2588 ;;      Totals:         2       0       0       0       0       0       0       0       0       0       0       0       
      +0       0       0       0
  2589 ;;Total ram usage:        2 bytes
  2590 ;; Hardware stack levels used: 1
  2591 ;; Hardware stack levels required when called: 5
  2592 ;; This function calls:
  2593 ;;		Nothing
  2594 ;; This function is called by:
  2595 ;;		_EUSART1_Initialize
  2596 ;; This function uses a non-reentrant model
  2597 ;;
  2598                           
  2599                           	psect	text18
  2600  001E0E                     __ptext18:
  2601                           	callstack 0
  2602  001E0E                     _EUSART1_SetOverrunErrorHandler:
  2603                           	callstack 23
  2604  001E0E                     
  2605                           ;eusart1.c: 171: EUSART1_OverrunErrorHandler = interruptHandler;
  2606  001E0E  C007  F03E         	movff	EUSART1_SetOverrunErrorHandler@interruptHandler,_EUSART1_OverrunErrorHandler
  2607  001E12  C008  F03F         	movff	EUSART1_SetOverrunErrorHandler@interruptHandler+1,_EUSART1_OverrunErrorHandler+1
  2608  001E16  0012               	return		;funcret
  2609  001E18                     __end_of_EUSART1_SetOverrunErrorHandler:
  2610                           	callstack 0
  2611                           
  2612 ;; *************** function _EUSART1_SetFramingErrorHandler *****************
  2613 ;; Defined at:
  2614 ;;		line 166 in file "mcc_generated_files/eusart1.c"
  2615 ;; Parameters:    Size  Location     Type
  2616 ;;  interruptHan    2    6[COMRAM] PTR FTN()void 
  2617 ;;		 -> EUSART1_DefaultFramingErrorHandler(1), 
  2618 ;; Auto vars:     Size  Location     Type
  2619 ;;		None
  2620 ;; Return value:  Size  Location     Type
  2621 ;;                  1    wreg      void 
  2622 ;; Registers used:
  2623 ;;		wreg, status,2, status,0
  2624 ;; Tracked objects:
  2625 ;;		On entry : 0/0
  2626 ;;		On exit  : 0/0
  2627 ;;		Unchanged: 0/0
  2628 ;; Data sizes:     COMRAM   BANK0   BANK1   BANK2   BANK3   BANK4   BANK5   BANK6   BANK7   BANK8   BANK9  BANK10  BANK1
      +1  BANK12  BANK13  BANK14
  2629 ;;      Params:         2       0       0       0       0       0       0       0       0       0       0       0       
      +0       0       0       0
  2630 ;;      Locals:         0       0       0       0       0       0       0       0       0       0       0       0       
      +0       0       0       0
  2631 ;;      Temps:          0       0       0       0       0       0       0       0       0       0       0       0       
      +0       0       0       0
  2632 ;;      Totals:         2       0       0       0       0       0       0       0       0       0       0       0       
      +0       0       0       0
  2633 ;;Total ram usage:        2 bytes
  2634 ;; Hardware stack levels used: 1
  2635 ;; Hardware stack levels required when called: 5
  2636 ;; This function calls:
  2637 ;;		Nothing
  2638 ;; This function is called by:
  2639 ;;		_EUSART1_Initialize
  2640 ;; This function uses a non-reentrant model
  2641 ;;
  2642                           
  2643                           	psect	text19
  2644  001E18                     __ptext19:
  2645                           	callstack 0
  2646  001E18                     _EUSART1_SetFramingErrorHandler:
  2647                           	callstack 23
  2648  001E18                     
  2649                           ;eusart1.c: 167: EUSART1_FramingErrorHandler = interruptHandler;
  2650  001E18  C007  F040         	movff	EUSART1_SetFramingErrorHandler@interruptHandler,_EUSART1_FramingErrorHandler
  2651  001E1C  C008  F041         	movff	EUSART1_SetFramingErrorHandler@interruptHandler+1,_EUSART1_FramingErrorHandler+1
  2652  001E20  0012               	return		;funcret
  2653  001E22                     __end_of_EUSART1_SetFramingErrorHandler:
  2654                           	callstack 0
  2655                           
  2656 ;; *************** function _EUSART1_SetErrorHandler *****************
  2657 ;; Defined at:
  2658 ;;		line 174 in file "mcc_generated_files/eusart1.c"
  2659 ;; Parameters:    Size  Location     Type
  2660 ;;  interruptHan    2    6[COMRAM] PTR FTN()void 
  2661 ;;		 -> EUSART1_DefaultErrorHandler(1), 
  2662 ;; Auto vars:     Size  Location     Type
  2663 ;;		None
  2664 ;; Return value:  Size  Location     Type
  2665 ;;                  1    wreg      void 
  2666 ;; Registers used:
  2667 ;;		wreg, status,2, status,0
  2668 ;; Tracked objects:
  2669 ;;		On entry : 0/0
  2670 ;;		On exit  : 0/0
  2671 ;;		Unchanged: 0/0
  2672 ;; Data sizes:     COMRAM   BANK0   BANK1   BANK2   BANK3   BANK4   BANK5   BANK6   BANK7   BANK8   BANK9  BANK10  BANK1
      +1  BANK12  BANK13  BANK14
  2673 ;;      Params:         2       0       0       0       0       0       0       0       0       0       0       0       
      +0       0       0       0
  2674 ;;      Locals:         0       0       0       0       0       0       0       0       0       0       0       0       
      +0       0       0       0
  2675 ;;      Temps:          0       0       0       0       0       0       0       0       0       0       0       0       
      +0       0       0       0
  2676 ;;      Totals:         2       0       0       0       0       0       0       0       0       0       0       0       
      +0       0       0       0
  2677 ;;Total ram usage:        2 bytes
  2678 ;; Hardware stack levels used: 1
  2679 ;; Hardware stack levels required when called: 5
  2680 ;; This function calls:
  2681 ;;		Nothing
  2682 ;; This function is called by:
  2683 ;;		_EUSART1_Initialize
  2684 ;; This function uses a non-reentrant model
  2685 ;;
  2686                           
  2687                           	psect	text20
  2688  001E22                     __ptext20:
  2689                           	callstack 0
  2690  001E22                     _EUSART1_SetErrorHandler:
  2691                           	callstack 23
  2692  001E22                     
  2693                           ;eusart1.c: 175: EUSART1_ErrorHandler = interruptHandler;
  2694  001E22  C007  F03C         	movff	EUSART1_SetErrorHandler@interruptHandler,_EUSART1_ErrorHandler
  2695  001E26  C008  F03D         	movff	EUSART1_SetErrorHandler@interruptHandler+1,_EUSART1_ErrorHandler+1
  2696  001E2A  0012               	return		;funcret
  2697  001E2C                     __end_of_EUSART1_SetErrorHandler:
  2698                           	callstack 0
  2699                           
  2700 ;; *************** function _DAC1_Initialize *****************
  2701 ;; Defined at:
  2702 ;;		line 58 in file "mcc_generated_files/dac1.c"
  2703 ;; Parameters:    Size  Location     Type
  2704 ;;		None
  2705 ;; Auto vars:     Size  Location     Type
  2706 ;;		None
  2707 ;; Return value:  Size  Location     Type
  2708 ;;                  1    wreg      void 
  2709 ;; Registers used:
  2710 ;;		wreg, status,2
  2711 ;; Tracked objects:
  2712 ;;		On entry : 0/0
  2713 ;;		On exit  : 0/0
  2714 ;;		Unchanged: 0/0
  2715 ;; Data sizes:     COMRAM   BANK0   BANK1   BANK2   BANK3   BANK4   BANK5   BANK6   BANK7   BANK8   BANK9  BANK10  BANK1
      +1  BANK12  BANK13  BANK14
  2716 ;;      Params:         0       0       0       0       0       0       0       0       0       0       0       0       
      +0       0       0       0
  2717 ;;      Locals:         0       0       0       0       0       0       0       0       0       0       0       0       
      +0       0       0       0
  2718 ;;      Temps:          0       0       0       0       0       0       0       0       0       0       0       0       
      +0       0       0       0
  2719 ;;      Totals:         0       0       0       0       0       0       0       0       0       0       0       0       
      +0       0       0       0
  2720 ;;Total ram usage:        0 bytes
  2721 ;; Hardware stack levels used: 1
  2722 ;; Hardware stack levels required when called: 5
  2723 ;; This function calls:
  2724 ;;		Nothing
  2725 ;; This function is called by:
  2726 ;;		_SYSTEM_Initialize
  2727 ;; This function uses a non-reentrant model
  2728 ;;
  2729                           
  2730                           	psect	text21
  2731  001DE2                     __ptext21:
  2732                           	callstack 0
  2733  001DE2                     _DAC1_Initialize:
  2734                           	callstack 24
  2735  001DE2                     
  2736                           ;dac1.c: 61: DAC1CON0 = 0xA0;
  2737  001DE2  0EA0               	movlw	160
  2738  001DE4  010F               	movlb	15	; () banked
  2739  001DE6  6F33               	movwf	51,b	;volatile
  2740                           
  2741                           ;dac1.c: 63: DAC1CON1 = 0x08;
  2742  001DE8  0E08               	movlw	8
  2743  001DEA  6F34               	movwf	52,b	;volatile
  2744  001DEC                     
  2745                           ; BSR set to: 15
  2746  001DEC  0012               	return		;funcret
  2747  001DEE                     __end_of_DAC1_Initialize:
  2748                           	callstack 0
  2749                           
  2750 ;; *************** function _ADCC_Initialize *****************
  2751 ;; Defined at:
  2752 ;;		line 62 in file "mcc_generated_files/adcc.c"
  2753 ;; Parameters:    Size  Location     Type
  2754 ;;		None
  2755 ;; Auto vars:     Size  Location     Type
  2756 ;;		None
  2757 ;; Return value:  Size  Location     Type
  2758 ;;                  1    wreg      void 
  2759 ;; Registers used:
  2760 ;;		wreg, status,2
  2761 ;; Tracked objects:
  2762 ;;		On entry : 0/0
  2763 ;;		On exit  : 0/0
  2764 ;;		Unchanged: 0/0
  2765 ;; Data sizes:     COMRAM   BANK0   BANK1   BANK2   BANK3   BANK4   BANK5   BANK6   BANK7   BANK8   BANK9  BANK10  BANK1
      +1  BANK12  BANK13  BANK14
  2766 ;;      Params:         0       0       0       0       0       0       0       0       0       0       0       0       
      +0       0       0       0
  2767 ;;      Locals:         0       0       0       0       0       0       0       0       0       0       0       0       
      +0       0       0       0
  2768 ;;      Temps:          0       0       0       0       0       0       0       0       0       0       0       0       
      +0       0       0       0
  2769 ;;      Totals:         0       0       0       0       0       0       0       0       0       0       0       0       
      +0       0       0       0
  2770 ;;Total ram usage:        0 bytes
  2771 ;; Hardware stack levels used: 1
  2772 ;; Hardware stack levels required when called: 5
  2773 ;; This function calls:
  2774 ;;		Nothing
  2775 ;; This function is called by:
  2776 ;;		_SYSTEM_Initialize
  2777 ;;		_main
  2778 ;; This function uses a non-reentrant model
  2779 ;;
  2780                           
  2781                           	psect	text22
  2782  001AE0                     __ptext22:
  2783                           	callstack 0
  2784  001AE0                     _ADCC_Initialize:
  2785                           	callstack 24
  2786  001AE0                     
  2787                           ;adcc.c: 66: ADLTHL = 0x00;
  2788  001AE0  0E00               	movlw	0
  2789  001AE2  6E6A               	movwf	106,c	;volatile
  2790                           
  2791                           ;adcc.c: 68: ADLTHH = 0x00;
  2792  001AE4  0E00               	movlw	0
  2793  001AE6  6E6B               	movwf	107,c	;volatile
  2794                           
  2795                           ;adcc.c: 70: ADUTHL = 0x00;
  2796  001AE8  0E00               	movlw	0
  2797  001AEA  6E6C               	movwf	108,c	;volatile
  2798                           
  2799                           ;adcc.c: 72: ADUTHH = 0x00;
  2800  001AEC  0E00               	movlw	0
  2801  001AEE  6E6D               	movwf	109,c	;volatile
  2802                           
  2803                           ;adcc.c: 74: ADSTPTL = 0x00;
  2804  001AF0  0E00               	movlw	0
  2805  001AF2  6E68               	movwf	104,c	;volatile
  2806                           
  2807                           ;adcc.c: 76: ADSTPTH = 0x00;
  2808  001AF4  0E00               	movlw	0
  2809  001AF6  6E69               	movwf	105,c	;volatile
  2810                           
  2811                           ;adcc.c: 78: ADRPT = 0x00;
  2812  001AF8  0E00               	movlw	0
  2813  001AFA  6E66               	movwf	102,c	;volatile
  2814                           
  2815                           ;adcc.c: 80: ADPCH = 0x00;
  2816  001AFC  0E00               	movlw	0
  2817  001AFE  010F               	movlb	15	; () banked
  2818  001B00  6F5F               	movwf	95,b	;volatile
  2819                           
  2820                           ;adcc.c: 82: ADCAP = 0x00;
  2821  001B02  0E00               	movlw	0
  2822  001B04  6F5D               	movwf	93,b	;volatile
  2823                           
  2824                           ;adcc.c: 84: ADPRE = 0x00;
  2825  001B06  0E00               	movlw	0
  2826  001B08  6F5E               	movwf	94,b	;volatile
  2827                           
  2828                           ;adcc.c: 86: ADCON1 = 0x00;
  2829  001B0A  0E00               	movlw	0
  2830  001B0C  6F59               	movwf	89,b	;volatile
  2831                           
  2832                           ;adcc.c: 88: ADCON2 = 0x00;
  2833  001B0E  0E00               	movlw	0
  2834  001B10  6F5A               	movwf	90,b	;volatile
  2835                           
  2836                           ;adcc.c: 90: ADCON3 = 0x00;
  2837  001B12  0E00               	movlw	0
  2838  001B14  6F5B               	movwf	91,b	;volatile
  2839                           
  2840                           ;adcc.c: 92: ADSTAT = 0x00;
  2841  001B16  0E00               	movlw	0
  2842  001B18  6E65               	movwf	101,c	;volatile
  2843                           
  2844                           ;adcc.c: 94: ADREF = 0x00;
  2845  001B1A  0E00               	movlw	0
  2846  001B1C  6F58               	movwf	88,b	;volatile
  2847                           
  2848                           ;adcc.c: 96: ADACT = 0x00;
  2849  001B1E  0E00               	movlw	0
  2850  001B20  6F56               	movwf	86,b	;volatile
  2851                           
  2852                           ;adcc.c: 98: ADCLK = 0x0F;
  2853  001B22  0E0F               	movlw	15
  2854  001B24  6F57               	movwf	87,b	;volatile
  2855                           
  2856                           ;adcc.c: 100: ADCON0 = 0x84;
  2857  001B26  0E84               	movlw	132
  2858  001B28  6E60               	movwf	96,c	;volatile
  2859                           
  2860                           ;adcc.c: 102: ADACQ = 0x01;
  2861  001B2A  0E01               	movlw	1
  2862  001B2C  6F5C               	movwf	92,b	;volatile
  2863  001B2E                     
  2864                           ; BSR set to: 15
  2865  001B2E  0012               	return		;funcret
  2866  001B30                     __end_of_ADCC_Initialize:
  2867                           	callstack 0
  2868                           
  2869 ;; *************** function _Luminosidade *****************
  2870 ;; Defined at:
  2871 ;;		line 79 in file "main.c"
  2872 ;; Parameters:    Size  Location     Type
  2873 ;;		None
  2874 ;; Auto vars:     Size  Location     Type
  2875 ;;  luz             2   30[COMRAM] unsigned int 
  2876 ;; Return value:  Size  Location     Type
  2877 ;;                  1    wreg      void 
  2878 ;; Registers used:
  2879 ;;		wreg, fsr2l, fsr2h, status,2, status,0, tblptrl, tblptrh, tblptru, prodl, prodh, cstack
  2880 ;; Tracked objects:
  2881 ;;		On entry : 0/0
  2882 ;;		On exit  : 0/0
  2883 ;;		Unchanged: 0/0
  2884 ;; Data sizes:     COMRAM   BANK0   BANK1   BANK2   BANK3   BANK4   BANK5   BANK6   BANK7   BANK8   BANK9  BANK10  BANK1
      +1  BANK12  BANK13  BANK14
  2885 ;;      Params:         0       0       0       0       0       0       0       0       0       0       0       0       
      +0       0       0       0
  2886 ;;      Locals:         2       0       0       0       0       0       0       0       0       0       0       0       
      +0       0       0       0
  2887 ;;      Temps:          0       0       0       0       0       0       0       0       0       0       0       0       
      +0       0       0       0
  2888 ;;      Totals:         2       0       0       0       0       0       0       0       0       0       0       0       
      +0       0       0       0
  2889 ;;Total ram usage:        2 bytes
  2890 ;; Hardware stack levels used: 1
  2891 ;; Hardware stack levels required when called: 8
  2892 ;; This function calls:
  2893 ;;		_ADCC_DischargeSampleCapacitor
  2894 ;;		_ADCC_GetConversionResult
  2895 ;;		_ADCC_IsConversionDone
  2896 ;;		_ADCC_StartConversion
  2897 ;;		_printf
  2898 ;; This function is called by:
  2899 ;;		_main
  2900 ;; This function uses a non-reentrant model
  2901 ;;
  2902                           
  2903                           	psect	text23
  2904  001B30                     __ptext23:
  2905                           	callstack 0
  2906  001B30                     _Luminosidade:
  2907                           	callstack 22
  2908  001B30                     
  2909                           ;main.c: 81: ADCC_DischargeSampleCapacitor();
  2910  001B30  EC20  F00F         	call	_ADCC_DischargeSampleCapacitor	;wreg free
  2911  001B34                     
  2912                           ;main.c: 82: ADCC_StartConversion(Luz_Sensor);
  2913  001B34  0E15               	movlw	21
  2914  001B36  ECF7  F00E         	call	_ADCC_StartConversion
  2915  001B3A                     l2703:
  2916  001B3A  ECD4  F00E         	call	_ADCC_IsConversionDone	;wreg free
  2917  001B3E  0900               	iorlw	0
  2918  001B40  B4D8               	btfsc	status,2,c
  2919  001B42  EFA5  F00D         	goto	u1581
  2920  001B46  EFA7  F00D         	goto	u1580
  2921  001B4A                     u1581:
  2922  001B4A  EF9D  F00D         	goto	l2703
  2923  001B4E                     u1580:
  2924  001B4E                     
  2925                           ;main.c: 85: };main.c: 88: adc_result_t luz = ADCC_GetConversionResult();
  2926  001B4E  ECDE  F00E         	call	_ADCC_GetConversionResult	;wreg free
  2927  001B52  C007  F01F         	movff	?_ADCC_GetConversionResult,Luminosidade@luz
  2928  001B56  C008  F020         	movff	?_ADCC_GetConversionResult+1,Luminosidade@luz+1
  2929  001B5A                     
  2930                           ;main.c: 89: luminosidade = (int) luz;
  2931  001B5A  C01F  F048         	movff	Luminosidade@luz,_luminosidade
  2932  001B5E  C020  F049         	movff	Luminosidade@luz+1,_luminosidade+1
  2933  001B62                     
  2934                           ;main.c: 91: printf("*%d", luminosidade);
  2935  001B62  0E0F               	movlw	low STR_2
  2936  001B64  6E13               	movwf	printf@f^0,c
  2937  001B66  0E0F               	movlw	high STR_2
  2938  001B68  6E14               	movwf	(printf@f+1)^0,c
  2939  001B6A  C048  F015         	movff	_luminosidade,?_printf+2
  2940  001B6E  C049  F016         	movff	_luminosidade+1,?_printf+3
  2941  001B72  EC31  F00A         	call	_printf	;wreg free
  2942  001B76  0012               	return		;funcret
  2943  001B78                     __end_of_Luminosidade:
  2944                           	callstack 0
  2945                           
  2946 ;; *************** function _printf *****************
  2947 ;; Defined at:
  2948 ;;		line 477 in file "C:\Program Files\Microchip\xc8\v2.36\pic\sources\c90\common\doprnt.c"
  2949 ;; Parameters:    Size  Location     Type
  2950 ;;  f               2   18[COMRAM] PTR const unsigned char 
  2951 ;;		 -> STR_2(4), STR_1(4), 
  2952 ;; Auto vars:     Size  Location     Type
  2953 ;;  tmpval          4    0        struct .
  2954 ;;  cp              3    0        PTR const unsigned char 
  2955 ;;  val             2   27[COMRAM] unsigned int 
  2956 ;;  ap              2   23[COMRAM] PTR void [1]
  2957 ;;		 -> ?_printf(2), 
  2958 ;;  len             2    0        unsigned int 
  2959 ;;  c               1   29[COMRAM] unsigned char 
  2960 ;;  prec            1   26[COMRAM] char 
  2961 ;;  flag            1   25[COMRAM] unsigned char 
  2962 ;; Return value:  Size  Location     Type
  2963 ;;                  2   18[COMRAM] int 
  2964 ;; Registers used:
  2965 ;;		wreg, fsr2l, fsr2h, status,2, status,0, tblptrl, tblptrh, tblptru, prodl, prodh, cstack
  2966 ;; Tracked objects:
  2967 ;;		On entry : 0/0
  2968 ;;		On exit  : 0/0
  2969 ;;		Unchanged: 0/0
  2970 ;; Data sizes:     COMRAM   BANK0   BANK1   BANK2   BANK3   BANK4   BANK5   BANK6   BANK7   BANK8   BANK9  BANK10  BANK1
      +1  BANK12  BANK13  BANK14
  2971 ;;      Params:         4       0       0       0       0       0       0       0       0       0       0       0       
      +0       0       0       0
  2972 ;;      Locals:         7       0       0       0       0       0       0       0       0       0       0       0       
      +0       0       0       0
  2973 ;;      Temps:          1       0       0       0       0       0       0       0       0       0       0       0       
      +0       0       0       0
  2974 ;;      Totals:        12       0       0       0       0       0       0       0       0       0       0       0       
      +0       0       0       0
  2975 ;;Total ram usage:       12 bytes
  2976 ;; Hardware stack levels used: 1
  2977 ;; Hardware stack levels required when called: 7
  2978 ;; This function calls:
  2979 ;;		___lwdiv
  2980 ;;		___lwmod
  2981 ;;		_putch
  2982 ;; This function is called by:
  2983 ;;		_Temperatura
  2984 ;;		_Luminosidade
  2985 ;; This function uses a non-reentrant model
  2986 ;;
  2987                           
  2988                           	psect	text24
  2989  001462                     __ptext24:
  2990                           	callstack 0
  2991  001462                     _printf:
  2992                           	callstack 22
  2993  001462                     
  2994                           ;doprnt.c: 479: va_list ap;;doprnt.c: 512: char c;;doprnt.c: 521: signed char prec;;dopr
      +                          nt.c: 525: unsigned char flag;;doprnt.c: 540: union {;doprnt.c: 541: unsigned long vd;;d
      +                          oprnt.c: 542: double integ;;doprnt.c: 543: } tmpval;;doprnt.c: 545: unsigned int val;;do
      +                          prnt.c: 546: unsigned len;;doprnt.c: 547: const char * cp;;doprnt.c: 550: *ap = __va_sta
      +                          rt();
  2995  001462  0E15               	movlw	low (?_printf+2)
  2996  001464  6E18               	movwf	printf@ap^0,c
  2997  001466  0E00               	movlw	high (?_printf+2)
  2998  001468  6E19               	movwf	(printf@ap+1)^0,c
  2999                           
  3000                           ;doprnt.c: 553: while((c = *f++)) {
  3001  00146A  EFE1  F00A         	goto	l2409
  3002  00146E                     l2363:
  3003                           
  3004                           ;doprnt.c: 555: if(c != '%')
  3005  00146E  0E25               	movlw	37
  3006  001470  181E               	xorwf	printf@c^0,w,c
  3007  001472  B4D8               	btfsc	status,2,c
  3008  001474  EF3E  F00A         	goto	u1051
  3009  001478  EF40  F00A         	goto	u1050
  3010  00147C                     u1051:
  3011  00147C  EF45  F00A         	goto	l2367
  3012  001480                     u1050:
  3013  001480                     
  3014                           ;doprnt.c: 557: {;doprnt.c: 558: (putch(c) );
  3015  001480  501E               	movf	printf@c^0,w,c
  3016  001482  EC16  F00F         	call	_putch
  3017                           
  3018                           ;doprnt.c: 559: continue;
  3019  001486  EFE1  F00A         	goto	l2409
  3020  00148A                     l2367:
  3021                           
  3022                           ;doprnt.c: 560: };doprnt.c: 565: flag = 0;
  3023  00148A  0E00               	movlw	0
  3024  00148C  6E1A               	movwf	printf@flag^0,c
  3025  00148E  C013  FFF6         	movff	printf@f,tblptrl
  3026  001492  C014  FFF7         	movff	printf@f+1,tblptrh
  3027  001496  4A13               	infsnz	printf@f^0,f,c
  3028  001498  2A14               	incf	(printf@f+1)^0,f,c
  3029  00149A                     	if	1	;Program memory is < 0x10000, tblptru is always zero
  3030  00149A  6AF8               	clrf	tblptru,c
  3031  00149C                     	endif
  3032  00149C                     	if	0	;tblptru may be non-zero
  3033  00149C                     	endif
  3034  00149C  0008               	tblrd		*
  3035  00149E  CFF5 F01E          	movff	tablat,printf@c
  3036  0014A2  501E               	movf	printf@c^0,w,c
  3037                           
  3038                           ; Switch size 1, requested type "simple"
  3039                           ; Number of cases is 3, Range of values is 0 to 105
  3040                           ; switch strategies available:
  3041                           ; Name         Instructions Cycles
  3042                           ; simple_byte           10     6 (average)
  3043                           ;	Chosen strategy is simple_byte
  3044  0014A4  0A00               	xorlw	0	; case 0
  3045  0014A6  B4D8               	btfsc	status,2,c
  3046  0014A8  EFF3  F00A         	goto	l709
  3047  0014AC  0A64               	xorlw	100	; case 100
  3048  0014AE  B4D8               	btfsc	status,2,c
  3049  0014B0  EF60  F00A         	goto	l2373
  3050  0014B4  0A0D               	xorlw	13	; case 105
  3051  0014B6  B4D8               	btfsc	status,2,c
  3052  0014B8  EF60  F00A         	goto	l2373
  3053  0014BC  EFE1  F00A         	goto	l2409
  3054  0014C0                     l2373:
  3055                           
  3056                           ;doprnt.c: 1279: {;doprnt.c: 1285: val = (unsigned int)(*(int *)__va_arg((*(int **)ap), 
      +                          (int)0));
  3057  0014C0  C018  FFD9         	movff	printf@ap,fsr2l
  3058  0014C4  C019  FFDA         	movff	printf@ap+1,fsr2h
  3059  0014C8  CFDE F01C          	movff	postinc2,printf@val
  3060  0014CC  CFDD F01D          	movff	postdec2,printf@val+1
  3061  0014D0  0E02               	movlw	2
  3062  0014D2  2618               	addwf	printf@ap^0,f,c
  3063  0014D4  0E00               	movlw	0
  3064  0014D6  2219               	addwfc	(printf@ap+1)^0,f,c
  3065  0014D8                     
  3066                           ;doprnt.c: 1287: if((int)val < 0) {
  3067  0014D8  BE1D               	btfsc	(printf@val+1)^0,7,c
  3068  0014DA  EF73  F00A         	goto	u1060
  3069  0014DE  EF71  F00A         	goto	u1061
  3070  0014E2                     u1061:
  3071  0014E2  EF79  F00A         	goto	l2383
  3072  0014E6                     u1060:
  3073  0014E6                     
  3074                           ;doprnt.c: 1288: flag |= 0x03;
  3075  0014E6  0E03               	movlw	3
  3076  0014E8  121A               	iorwf	printf@flag^0,f,c
  3077  0014EA                     
  3078                           ;doprnt.c: 1289: val = -val;
  3079  0014EA  6C1C               	negf	printf@val^0,c
  3080  0014EC  1E1D               	comf	(printf@val+1)^0,f,c
  3081  0014EE  B0D8               	btfsc	status,0,c
  3082  0014F0  2A1D               	incf	(printf@val+1)^0,f,c
  3083  0014F2                     l2383:
  3084                           
  3085                           ;doprnt.c: 1290: };doprnt.c: 1292: };doprnt.c: 1331: for(c = 1 ; c != sizeof dpowers/siz
      +                          eof dpowers[0] ; c++)
  3086  0014F2  0E01               	movlw	1
  3087  0014F4  6E1E               	movwf	printf@c^0,c
  3088  0014F6                     l2389:
  3089                           
  3090                           ;doprnt.c: 1332: if(val < dpowers[c])
  3091  0014F6  501E               	movf	printf@c^0,w,c
  3092  0014F8  0D02               	mullw	2
  3093  0014FA  0E01               	movlw	low _dpowers
  3094  0014FC  24F3               	addwf	243,w,c
  3095  0014FE  6EF6               	movwf	tblptrl,c
  3096  001500  0E0F               	movlw	high _dpowers
  3097  001502  20F4               	addwfc	244,w,c
  3098  001504  6EF7               	movwf	tblptrh,c
  3099  001506                     	if	1	;There are 3 active tblptr bytes
  3100  001506  6AF8               	clrf	tblptru,c
  3101  001508  0E00               	movlw	low (__mediumconst shr (0+16))
  3102  00150A  22F8               	addwfc	tblptru,f,c
  3103  00150C                     	endif
  3104  00150C  0009               	tblrd		*+
  3105  00150E  50F5               	movf	tablat,w,c
  3106  001510  5C1C               	subwf	printf@val^0,w,c
  3107  001512  0009               	tblrd		*+
  3108  001514  50F5               	movf	tablat,w,c
  3109  001516  581D               	subwfb	(printf@val+1)^0,w,c
  3110  001518  B0D8               	btfsc	status,0,c
  3111  00151A  EF91  F00A         	goto	u1071
  3112  00151E  EF93  F00A         	goto	u1070
  3113  001522                     u1071:
  3114  001522  EF95  F00A         	goto	l2393
  3115  001526                     u1070:
  3116  001526  EF9F  F00A         	goto	l2397
  3117  00152A                     l2393:
  3118  00152A  2A1E               	incf	printf@c^0,f,c
  3119  00152C  0E05               	movlw	5
  3120  00152E  181E               	xorwf	printf@c^0,w,c
  3121  001530  A4D8               	btfss	status,2,c
  3122  001532  EF9D  F00A         	goto	u1081
  3123  001536  EF9F  F00A         	goto	u1080
  3124  00153A                     u1081:
  3125  00153A  EF7B  F00A         	goto	l2389
  3126  00153E                     u1080:
  3127  00153E                     l2397:
  3128                           
  3129                           ;doprnt.c: 1448: {;doprnt.c: 1464: if(flag & 0x03)
  3130  00153E  C01A  F017         	movff	printf@flag,??_printf
  3131  001542  0E03               	movlw	3
  3132  001544  1617               	andwf	??_printf^0,f,c
  3133  001546  B4D8               	btfsc	status,2,c
  3134  001548  EFA8  F00A         	goto	u1091
  3135  00154C  EFAA  F00A         	goto	u1090
  3136  001550                     u1091:
  3137  001550  EFAD  F00A         	goto	l2401
  3138  001554                     u1090:
  3139  001554                     
  3140                           ;doprnt.c: 1465: (putch('-') );
  3141  001554  0E2D               	movlw	45
  3142  001556  EC16  F00F         	call	_putch
  3143  00155A                     l2401:
  3144                           
  3145                           ;doprnt.c: 1495: };doprnt.c: 1498: prec = c;
  3146  00155A  C01E  F01B         	movff	printf@c,printf@prec
  3147                           
  3148                           ;doprnt.c: 1500: while(prec--) {
  3149  00155E  EFD8  F00A         	goto	l2407
  3150  001562                     l2403:
  3151                           
  3152                           ;doprnt.c: 1504: {;doprnt.c: 1515: c = (val / dpowers[(unsigned char)prec]) % 10 + '0';
  3153  001562  501B               	movf	printf@prec^0,w,c
  3154  001564  0D02               	mullw	2
  3155  001566  0E01               	movlw	low _dpowers
  3156  001568  24F3               	addwf	243,w,c
  3157  00156A  6EF6               	movwf	tblptrl,c
  3158  00156C  0E0F               	movlw	high _dpowers
  3159  00156E  20F4               	addwfc	244,w,c
  3160  001570  6EF7               	movwf	tblptrh,c
  3161  001572                     	if	1	;There are 3 active tblptr bytes
  3162  001572  6AF8               	clrf	tblptru,c
  3163  001574  0E00               	movlw	low (__mediumconst shr (0+16))
  3164  001576  22F8               	addwfc	tblptru,f,c
  3165  001578                     	endif
  3166  001578  0009               	tblrd		*+
  3167  00157A  CFF5 F009          	movff	tablat,___lwdiv@divisor
  3168  00157E  000A               	tblrd		*-
  3169  001580  CFF5 F00A          	movff	tablat,___lwdiv@divisor+1
  3170  001584  C01C  F007         	movff	printf@val,___lwdiv@dividend
  3171  001588  C01D  F008         	movff	printf@val+1,___lwdiv@dividend+1
  3172  00158C  EC7C  F00C         	call	___lwdiv	;wreg free
  3173  001590  C007  F00E         	movff	?___lwdiv,___lwmod@dividend
  3174  001594  C008  F00F         	movff	?___lwdiv+1,___lwmod@dividend+1
  3175  001598  0E00               	movlw	0
  3176  00159A  6E11               	movwf	(___lwmod@divisor+1)^0,c
  3177  00159C  0E0A               	movlw	10
  3178  00159E  6E10               	movwf	___lwmod@divisor^0,c
  3179  0015A0  ECB6  F00C         	call	___lwmod	;wreg free
  3180  0015A4  500E               	movf	?___lwmod^0,w,c
  3181  0015A6  0F30               	addlw	48
  3182  0015A8  6E1E               	movwf	printf@c^0,c
  3183  0015AA                     
  3184                           ;doprnt.c: 1549: };doprnt.c: 1550: (putch(c) );
  3185  0015AA  501E               	movf	printf@c^0,w,c
  3186  0015AC  EC16  F00F         	call	_putch
  3187  0015B0                     l2407:
  3188  0015B0  061B               	decf	printf@prec^0,f,c
  3189  0015B2  281B               	incf	printf@prec^0,w,c
  3190  0015B4  A4D8               	btfss	status,2,c
  3191  0015B6  EFDF  F00A         	goto	u1101
  3192  0015BA  EFE1  F00A         	goto	u1100
  3193  0015BE                     u1101:
  3194  0015BE  EFB1  F00A         	goto	l2403
  3195  0015C2                     u1100:
  3196  0015C2                     l2409:
  3197  0015C2  C013  FFF6         	movff	printf@f,tblptrl
  3198  0015C6  C014  FFF7         	movff	printf@f+1,tblptrh
  3199  0015CA  4A13               	infsnz	printf@f^0,f,c
  3200  0015CC  2A14               	incf	(printf@f+1)^0,f,c
  3201  0015CE                     	if	1	;Program memory is < 0x10000, tblptru is always zero
  3202  0015CE  6AF8               	clrf	tblptru,c
  3203  0015D0                     	endif
  3204  0015D0                     	if	0	;tblptru may be non-zero
  3205  0015D0                     	endif
  3206  0015D0  0008               	tblrd		*
  3207  0015D2  CFF5 F01E          	movff	tablat,printf@c
  3208  0015D6  501E               	movf	printf@c^0,w,c
  3209  0015D8  A4D8               	btfss	status,2,c
  3210  0015DA  EFF1  F00A         	goto	u1111
  3211  0015DE  EFF3  F00A         	goto	u1110
  3212  0015E2                     u1111:
  3213  0015E2  EF37  F00A         	goto	l2363
  3214  0015E6                     u1110:
  3215  0015E6                     l709:
  3216  0015E6  0012               	return		;funcret
  3217  0015E8                     __end_of_printf:
  3218                           	callstack 0
  3219                           
  3220 ;; *************** function _putch *****************
  3221 ;; Defined at:
  3222 ;;		line 146 in file "mcc_generated_files/eusart1.c"
  3223 ;; Parameters:    Size  Location     Type
  3224 ;;  txData          1    wreg     unsigned char 
  3225 ;; Auto vars:     Size  Location     Type
  3226 ;;  txData          1    7[COMRAM] unsigned char 
  3227 ;; Return value:  Size  Location     Type
  3228 ;;                  1    wreg      void 
  3229 ;; Registers used:
  3230 ;;		wreg, status,2, cstack
  3231 ;; Tracked objects:
  3232 ;;		On entry : 0/0
  3233 ;;		On exit  : 0/0
  3234 ;;		Unchanged: 0/0
  3235 ;; Data sizes:     COMRAM   BANK0   BANK1   BANK2   BANK3   BANK4   BANK5   BANK6   BANK7   BANK8   BANK9  BANK10  BANK1
      +1  BANK12  BANK13  BANK14
  3236 ;;      Params:         0       0       0       0       0       0       0       0       0       0       0       0       
      +0       0       0       0
  3237 ;;      Locals:         1       0       0       0       0       0       0       0       0       0       0       0       
      +0       0       0       0
  3238 ;;      Temps:          0       0       0       0       0       0       0       0       0       0       0       0       
      +0       0       0       0
  3239 ;;      Totals:         1       0       0       0       0       0       0       0       0       0       0       0       
      +0       0       0       0
  3240 ;;Total ram usage:        1 bytes
  3241 ;; Hardware stack levels used: 1
  3242 ;; Hardware stack levels required when called: 6
  3243 ;; This function calls:
  3244 ;;		_EUSART1_Write
  3245 ;; This function is called by:
  3246 ;;		_printf
  3247 ;; This function uses a non-reentrant model
  3248 ;;
  3249                           
  3250                           	psect	text25
  3251  001E2C                     __ptext25:
  3252                           	callstack 0
  3253  001E2C                     _putch:
  3254                           	callstack 22
  3255                           
  3256                           ;incstack = 0
  3257                           ;putch@txData stored from wreg
  3258  001E2C  6E08               	movwf	putch@txData^0,c
  3259  001E2E                     
  3260                           ;eusart1.c: 148: EUSART1_Write(txData);
  3261  001E2E  5008               	movf	putch@txData^0,w,c
  3262  001E30  EC92  F00E         	call	_EUSART1_Write
  3263  001E34  0012               	return		;funcret
  3264  001E36                     __end_of_putch:
  3265                           	callstack 0
  3266                           
  3267 ;; *************** function _EUSART1_Write *****************
  3268 ;; Defined at:
  3269 ;;		line 132 in file "mcc_generated_files/eusart1.c"
  3270 ;; Parameters:    Size  Location     Type
  3271 ;;  txData          1    wreg     unsigned char 
  3272 ;; Auto vars:     Size  Location     Type
  3273 ;;  txData          1    6[COMRAM] unsigned char 
  3274 ;; Return value:  Size  Location     Type
  3275 ;;                  1    wreg      void 
  3276 ;; Registers used:
  3277 ;;		wreg
  3278 ;; Tracked objects:
  3279 ;;		On entry : 0/0
  3280 ;;		On exit  : 0/0
  3281 ;;		Unchanged: 0/0
  3282 ;; Data sizes:     COMRAM   BANK0   BANK1   BANK2   BANK3   BANK4   BANK5   BANK6   BANK7   BANK8   BANK9  BANK10  BANK1
      +1  BANK12  BANK13  BANK14
  3283 ;;      Params:         0       0       0       0       0       0       0       0       0       0       0       0       
      +0       0       0       0
  3284 ;;      Locals:         1       0       0       0       0       0       0       0       0       0       0       0       
      +0       0       0       0
  3285 ;;      Temps:          0       0       0       0       0       0       0       0       0       0       0       0       
      +0       0       0       0
  3286 ;;      Totals:         1       0       0       0       0       0       0       0       0       0       0       0       
      +0       0       0       0
  3287 ;;Total ram usage:        1 bytes
  3288 ;; Hardware stack levels used: 1
  3289 ;; Hardware stack levels required when called: 5
  3290 ;; This function calls:
  3291 ;;		Nothing
  3292 ;; This function is called by:
  3293 ;;		_putch
  3294 ;;		_main
  3295 ;; This function uses a non-reentrant model
  3296 ;;
  3297                           
  3298                           	psect	text26
  3299  001D24                     __ptext26:
  3300                           	callstack 0
  3301  001D24                     _EUSART1_Write:
  3302                           	callstack 22
  3303                           
  3304                           ;incstack = 0
  3305                           ;EUSART1_Write@txData stored from wreg
  3306  001D24  6E07               	movwf	EUSART1_Write@txData^0,c
  3307  001D26                     l558:
  3308  001D26  010E               	movlb	14	; () banked
  3309  001D28  A9CD               	btfss	205,4,b	;volatile
  3310  001D2A  EF99  F00E         	goto	u11
  3311  001D2E  EF9B  F00E         	goto	u10
  3312  001D32                     u11:
  3313  001D32  EF93  F00E         	goto	l558
  3314  001D36                     u10:
  3315  001D36                     
  3316                           ; BSR set to: 14
  3317                           ;eusart1.c: 136: };eusart1.c: 138: TX1REG = txData;
  3318  001D36  C007  FF9A         	movff	EUSART1_Write@txData,3994	;volatile
  3319  001D3A                     
  3320                           ; BSR set to: 14
  3321  001D3A  0012               	return		;funcret
  3322  001D3C                     __end_of_EUSART1_Write:
  3323                           	callstack 0
  3324                           
  3325 ;; *************** function ___lwmod *****************
  3326 ;; Defined at:
  3327 ;;		line 7 in file "C:\Program Files\Microchip\xc8\v2.36\pic\sources\c90\common\lwmod.c"
  3328 ;; Parameters:    Size  Location     Type
  3329 ;;  dividend        2   13[COMRAM] unsigned int 
  3330 ;;  divisor         2   15[COMRAM] unsigned int 
  3331 ;; Auto vars:     Size  Location     Type
  3332 ;;  counter         1   17[COMRAM] unsigned char 
  3333 ;; Return value:  Size  Location     Type
  3334 ;;                  2   13[COMRAM] unsigned int 
  3335 ;; Registers used:
  3336 ;;		wreg, status,2, status,0
  3337 ;; Tracked objects:
  3338 ;;		On entry : 0/0
  3339 ;;		On exit  : 0/0
  3340 ;;		Unchanged: 0/0
  3341 ;; Data sizes:     COMRAM   BANK0   BANK1   BANK2   BANK3   BANK4   BANK5   BANK6   BANK7   BANK8   BANK9  BANK10  BANK1
      +1  BANK12  BANK13  BANK14
  3342 ;;      Params:         4       0       0       0       0       0       0       0       0       0       0       0       
      +0       0       0       0
  3343 ;;      Locals:         1       0       0       0       0       0       0       0       0       0       0       0       
      +0       0       0       0
  3344 ;;      Temps:          0       0       0       0       0       0       0       0       0       0       0       0       
      +0       0       0       0
  3345 ;;      Totals:         5       0       0       0       0       0       0       0       0       0       0       0       
      +0       0       0       0
  3346 ;;Total ram usage:        5 bytes
  3347 ;; Hardware stack levels used: 1
  3348 ;; Hardware stack levels required when called: 5
  3349 ;; This function calls:
  3350 ;;		Nothing
  3351 ;; This function is called by:
  3352 ;;		_printf
  3353 ;; This function uses a non-reentrant model
  3354 ;;
  3355                           
  3356                           	psect	text27
  3357  00196C                     __ptext27:
  3358                           	callstack 0
  3359  00196C                     ___lwmod:
  3360                           	callstack 23
  3361  00196C  5010               	movf	___lwmod@divisor^0,w,c
  3362  00196E  1011               	iorwf	(___lwmod@divisor+1)^0,w,c
  3363  001970  B4D8               	btfsc	status,2,c
  3364  001972  EFBD  F00C         	goto	u981
  3365  001976  EFBF  F00C         	goto	u980
  3366  00197A                     u981:
  3367  00197A  EFE3  F00C         	goto	l1201
  3368  00197E                     u980:
  3369  00197E  0E01               	movlw	1
  3370  001980  6E12               	movwf	___lwmod@counter^0,c
  3371  001982  EFC7  F00C         	goto	l2277
  3372  001986                     l2275:
  3373  001986  90D8               	bcf	status,0,c
  3374  001988  3610               	rlcf	___lwmod@divisor^0,f,c
  3375  00198A  3611               	rlcf	(___lwmod@divisor+1)^0,f,c
  3376  00198C  2A12               	incf	___lwmod@counter^0,f,c
  3377  00198E                     l2277:
  3378  00198E  AE11               	btfss	(___lwmod@divisor+1)^0,7,c
  3379  001990  EFCC  F00C         	goto	u991
  3380  001994  EFCE  F00C         	goto	u990
  3381  001998                     u991:
  3382  001998  EFC3  F00C         	goto	l2275
  3383  00199C                     u990:
  3384  00199C                     l2279:
  3385  00199C  5010               	movf	___lwmod@divisor^0,w,c
  3386  00199E  5C0E               	subwf	___lwmod@dividend^0,w,c
  3387  0019A0  5011               	movf	(___lwmod@divisor+1)^0,w,c
  3388  0019A2  580F               	subwfb	(___lwmod@dividend+1)^0,w,c
  3389  0019A4  A0D8               	btfss	status,0,c
  3390  0019A6  EFD7  F00C         	goto	u1001
  3391  0019AA  EFD9  F00C         	goto	u1000
  3392  0019AE                     u1001:
  3393  0019AE  EFDD  F00C         	goto	l2283
  3394  0019B2                     u1000:
  3395  0019B2  5010               	movf	___lwmod@divisor^0,w,c
  3396  0019B4  5E0E               	subwf	___lwmod@dividend^0,f,c
  3397  0019B6  5011               	movf	(___lwmod@divisor+1)^0,w,c
  3398  0019B8  5A0F               	subwfb	(___lwmod@dividend+1)^0,f,c
  3399  0019BA                     l2283:
  3400  0019BA  90D8               	bcf	status,0,c
  3401  0019BC  3211               	rrcf	(___lwmod@divisor+1)^0,f,c
  3402  0019BE  3210               	rrcf	___lwmod@divisor^0,f,c
  3403  0019C0  2E12               	decfsz	___lwmod@counter^0,f,c
  3404  0019C2  EFCE  F00C         	goto	l2279
  3405  0019C6                     l1201:
  3406  0019C6  C00E  F00E         	movff	___lwmod@dividend,?___lwmod
  3407  0019CA  C00F  F00F         	movff	___lwmod@dividend+1,?___lwmod+1
  3408  0019CE  0012               	return		;funcret
  3409  0019D0                     __end_of___lwmod:
  3410                           	callstack 0
  3411                           
  3412 ;; *************** function ___lwdiv *****************
  3413 ;; Defined at:
  3414 ;;		line 7 in file "C:\Program Files\Microchip\xc8\v2.36\pic\sources\c90\common\lwdiv.c"
  3415 ;; Parameters:    Size  Location     Type
  3416 ;;  dividend        2    6[COMRAM] unsigned int 
  3417 ;;  divisor         2    8[COMRAM] unsigned int 
  3418 ;; Auto vars:     Size  Location     Type
  3419 ;;  quotient        2   10[COMRAM] unsigned int 
  3420 ;;  counter         1   12[COMRAM] unsigned char 
  3421 ;; Return value:  Size  Location     Type
  3422 ;;                  2    6[COMRAM] unsigned int 
  3423 ;; Registers used:
  3424 ;;		wreg, status,2, status,0
  3425 ;; Tracked objects:
  3426 ;;		On entry : 0/0
  3427 ;;		On exit  : 0/0
  3428 ;;		Unchanged: 0/0
  3429 ;; Data sizes:     COMRAM   BANK0   BANK1   BANK2   BANK3   BANK4   BANK5   BANK6   BANK7   BANK8   BANK9  BANK10  BANK1
      +1  BANK12  BANK13  BANK14
  3430 ;;      Params:         4       0       0       0       0       0       0       0       0       0       0       0       
      +0       0       0       0
  3431 ;;      Locals:         3       0       0       0       0       0       0       0       0       0       0       0       
      +0       0       0       0
  3432 ;;      Temps:          0       0       0       0       0       0       0       0       0       0       0       0       
      +0       0       0       0
  3433 ;;      Totals:         7       0       0       0       0       0       0       0       0       0       0       0       
      +0       0       0       0
  3434 ;;Total ram usage:        7 bytes
  3435 ;; Hardware stack levels used: 1
  3436 ;; Hardware stack levels required when called: 5
  3437 ;; This function calls:
  3438 ;;		Nothing
  3439 ;; This function is called by:
  3440 ;;		_printf
  3441 ;; This function uses a non-reentrant model
  3442 ;;
  3443                           
  3444                           	psect	text28
  3445  0018F8                     __ptext28:
  3446                           	callstack 0
  3447  0018F8                     ___lwdiv:
  3448                           	callstack 23
  3449  0018F8  0E00               	movlw	0
  3450  0018FA  6E0C               	movwf	(___lwdiv@quotient+1)^0,c
  3451  0018FC  0E00               	movlw	0
  3452  0018FE  6E0B               	movwf	___lwdiv@quotient^0,c
  3453  001900  5009               	movf	___lwdiv@divisor^0,w,c
  3454  001902  100A               	iorwf	(___lwdiv@divisor+1)^0,w,c
  3455  001904  B4D8               	btfsc	status,2,c
  3456  001906  EF87  F00C         	goto	u951
  3457  00190A  EF89  F00C         	goto	u950
  3458  00190E                     u951:
  3459  00190E  EFB1  F00C         	goto	l1191
  3460  001912                     u950:
  3461  001912  0E01               	movlw	1
  3462  001914  6E0D               	movwf	___lwdiv@counter^0,c
  3463  001916  EF91  F00C         	goto	l2257
  3464  00191A                     l2255:
  3465  00191A  90D8               	bcf	status,0,c
  3466  00191C  3609               	rlcf	___lwdiv@divisor^0,f,c
  3467  00191E  360A               	rlcf	(___lwdiv@divisor+1)^0,f,c
  3468  001920  2A0D               	incf	___lwdiv@counter^0,f,c
  3469  001922                     l2257:
  3470  001922  AE0A               	btfss	(___lwdiv@divisor+1)^0,7,c
  3471  001924  EF96  F00C         	goto	u961
  3472  001928  EF98  F00C         	goto	u960
  3473  00192C                     u961:
  3474  00192C  EF8D  F00C         	goto	l2255
  3475  001930                     u960:
  3476  001930                     l2259:
  3477  001930  90D8               	bcf	status,0,c
  3478  001932  360B               	rlcf	___lwdiv@quotient^0,f,c
  3479  001934  360C               	rlcf	(___lwdiv@quotient+1)^0,f,c
  3480  001936  5009               	movf	___lwdiv@divisor^0,w,c
  3481  001938  5C07               	subwf	___lwdiv@dividend^0,w,c
  3482  00193A  500A               	movf	(___lwdiv@divisor+1)^0,w,c
  3483  00193C  5808               	subwfb	(___lwdiv@dividend+1)^0,w,c
  3484  00193E  A0D8               	btfss	status,0,c
  3485  001940  EFA4  F00C         	goto	u971
  3486  001944  EFA6  F00C         	goto	u970
  3487  001948                     u971:
  3488  001948  EFAB  F00C         	goto	l2267
  3489  00194C                     u970:
  3490  00194C  5009               	movf	___lwdiv@divisor^0,w,c
  3491  00194E  5E07               	subwf	___lwdiv@dividend^0,f,c
  3492  001950  500A               	movf	(___lwdiv@divisor+1)^0,w,c
  3493  001952  5A08               	subwfb	(___lwdiv@dividend+1)^0,f,c
  3494  001954  800B               	bsf	___lwdiv@quotient^0,0,c
  3495  001956                     l2267:
  3496  001956  90D8               	bcf	status,0,c
  3497  001958  320A               	rrcf	(___lwdiv@divisor+1)^0,f,c
  3498  00195A  3209               	rrcf	___lwdiv@divisor^0,f,c
  3499  00195C  2E0D               	decfsz	___lwdiv@counter^0,f,c
  3500  00195E  EF98  F00C         	goto	l2259
  3501  001962                     l1191:
  3502  001962  C00B  F007         	movff	___lwdiv@quotient,?___lwdiv
  3503  001966  C00C  F008         	movff	___lwdiv@quotient+1,?___lwdiv+1
  3504  00196A  0012               	return		;funcret
  3505  00196C                     __end_of___lwdiv:
  3506                           	callstack 0
  3507                           
  3508 ;; *************** function _ADCC_StartConversion *****************
  3509 ;; Defined at:
  3510 ;;		line 107 in file "mcc_generated_files/adcc.c"
  3511 ;; Parameters:    Size  Location     Type
  3512 ;;  channel         1    wreg     enum E9429
  3513 ;; Auto vars:     Size  Location     Type
  3514 ;;  channel         1    6[COMRAM] enum E9429
  3515 ;; Return value:  Size  Location     Type
  3516 ;;                  1    wreg      void 
  3517 ;; Registers used:
  3518 ;;		wreg
  3519 ;; Tracked objects:
  3520 ;;		On entry : 0/0
  3521 ;;		On exit  : 0/0
  3522 ;;		Unchanged: 0/0
  3523 ;; Data sizes:     COMRAM   BANK0   BANK1   BANK2   BANK3   BANK4   BANK5   BANK6   BANK7   BANK8   BANK9  BANK10  BANK1
      +1  BANK12  BANK13  BANK14
  3524 ;;      Params:         0       0       0       0       0       0       0       0       0       0       0       0       
      +0       0       0       0
  3525 ;;      Locals:         1       0       0       0       0       0       0       0       0       0       0       0       
      +0       0       0       0
  3526 ;;      Temps:          0       0       0       0       0       0       0       0       0       0       0       0       
      +0       0       0       0
  3527 ;;      Totals:         1       0       0       0       0       0       0       0       0       0       0       0       
      +0       0       0       0
  3528 ;;Total ram usage:        1 bytes
  3529 ;; Hardware stack levels used: 1
  3530 ;; Hardware stack levels required when called: 5
  3531 ;; This function calls:
  3532 ;;		Nothing
  3533 ;; This function is called by:
  3534 ;;		_Temperatura
  3535 ;;		_Luminosidade
  3536 ;; This function uses a non-reentrant model
  3537 ;;
  3538                           
  3539                           	psect	text29
  3540  001DEE                     __ptext29:
  3541                           	callstack 0
  3542  001DEE                     _ADCC_StartConversion:
  3543                           	callstack 24
  3544                           
  3545                           ;incstack = 0
  3546                           ;ADCC_StartConversion@channel stored from wreg
  3547  001DEE  6E07               	movwf	ADCC_StartConversion@channel^0,c
  3548  001DF0                     
  3549                           ;adcc.c: 110: ADPCH = channel;
  3550  001DF0  C007  FF5F         	movff	ADCC_StartConversion@channel,3935	;volatile
  3551  001DF4                     
  3552                           ;adcc.c: 113: ADCON0bits.ADON = 1;
  3553  001DF4  8E60               	bsf	96,7,c	;volatile
  3554  001DF6                     
  3555                           ;adcc.c: 116: ADCON0bits.ADGO = 1;
  3556  001DF6  8060               	bsf	96,0,c	;volatile
  3557  001DF8  0012               	return		;funcret
  3558  001DFA                     __end_of_ADCC_StartConversion:
  3559                           	callstack 0
  3560                           
  3561 ;; *************** function _ADCC_IsConversionDone *****************
  3562 ;; Defined at:
  3563 ;;		line 119 in file "mcc_generated_files/adcc.c"
  3564 ;; Parameters:    Size  Location     Type
  3565 ;;		None
  3566 ;; Auto vars:     Size  Location     Type
  3567 ;;		None
  3568 ;; Return value:  Size  Location     Type
  3569 ;;                  1    wreg      unsigned char 
  3570 ;; Registers used:
  3571 ;;		wreg
  3572 ;; Tracked objects:
  3573 ;;		On entry : 0/0
  3574 ;;		On exit  : 0/0
  3575 ;;		Unchanged: 0/0
  3576 ;; Data sizes:     COMRAM   BANK0   BANK1   BANK2   BANK3   BANK4   BANK5   BANK6   BANK7   BANK8   BANK9  BANK10  BANK1
      +1  BANK12  BANK13  BANK14
  3577 ;;      Params:         0       0       0       0       0       0       0       0       0       0       0       0       
      +0       0       0       0
  3578 ;;      Locals:         0       0       0       0       0       0       0       0       0       0       0       0       
      +0       0       0       0
  3579 ;;      Temps:          0       0       0       0       0       0       0       0       0       0       0       0       
      +0       0       0       0
  3580 ;;      Totals:         0       0       0       0       0       0       0       0       0       0       0       0       
      +0       0       0       0
  3581 ;;Total ram usage:        0 bytes
  3582 ;; Hardware stack levels used: 1
  3583 ;; Hardware stack levels required when called: 5
  3584 ;; This function calls:
  3585 ;;		Nothing
  3586 ;; This function is called by:
  3587 ;;		_Temperatura
  3588 ;;		_Luminosidade
  3589 ;; This function uses a non-reentrant model
  3590 ;;
  3591                           
  3592                           	psect	text30
  3593  001DA8                     __ptext30:
  3594                           	callstack 0
  3595  001DA8                     _ADCC_IsConversionDone:
  3596                           	callstack 24
  3597  001DA8                     
  3598                           ;adcc.c: 122: return ((unsigned char)(!ADCON0bits.ADGO));
  3599  001DA8  A060               	btfss	96,0,c	;volatile
  3600  001DAA  EFD9  F00E         	goto	u151
  3601  001DAE  EFDC  F00E         	goto	u150
  3602  001DB2                     u151:
  3603  001DB2  0E01               	movlw	1
  3604  001DB4  EFDD  F00E         	goto	u160
  3605  001DB8                     u150:
  3606  001DB8  0E00               	movlw	0
  3607  001DBA                     u160:
  3608  001DBA  0012               	return		;funcret
  3609  001DBC                     __end_of_ADCC_IsConversionDone:
  3610                           	callstack 0
  3611                           
  3612 ;; *************** function _ADCC_GetConversionResult *****************
  3613 ;; Defined at:
  3614 ;;		line 125 in file "mcc_generated_files/adcc.c"
  3615 ;; Parameters:    Size  Location     Type
  3616 ;;		None
  3617 ;; Auto vars:     Size  Location     Type
  3618 ;;		None
  3619 ;; Return value:  Size  Location     Type
  3620 ;;                  2    6[COMRAM] unsigned int 
  3621 ;; Registers used:
  3622 ;;		wreg, status,2, status,0
  3623 ;; Tracked objects:
  3624 ;;		On entry : 0/0
  3625 ;;		On exit  : 0/0
  3626 ;;		Unchanged: 0/0
  3627 ;; Data sizes:     COMRAM   BANK0   BANK1   BANK2   BANK3   BANK4   BANK5   BANK6   BANK7   BANK8   BANK9  BANK10  BANK1
      +1  BANK12  BANK13  BANK14
  3628 ;;      Params:         2       0       0       0       0       0       0       0       0       0       0       0       
      +0       0       0       0
  3629 ;;      Locals:         0       0       0       0       0       0       0       0       0       0       0       0       
      +0       0       0       0
  3630 ;;      Temps:          2       0       0       0       0       0       0       0       0       0       0       0       
      +0       0       0       0
  3631 ;;      Totals:         4       0       0       0       0       0       0       0       0       0       0       0       
      +0       0       0       0
  3632 ;;Total ram usage:        4 bytes
  3633 ;; Hardware stack levels used: 1
  3634 ;; Hardware stack levels required when called: 5
  3635 ;; This function calls:
  3636 ;;		Nothing
  3637 ;; This function is called by:
  3638 ;;		_Temperatura
  3639 ;;		_Luminosidade
  3640 ;; This function uses a non-reentrant model
  3641 ;;
  3642                           
  3643                           	psect	text31
  3644  001DBC                     __ptext31:
  3645                           	callstack 0
  3646  001DBC                     _ADCC_GetConversionResult:
  3647                           	callstack 24
  3648  001DBC                     
  3649                           ;adcc.c: 128: return ((adc_result_t)((ADRESH << 8) + ADRESL));
  3650  001DBC  5064               	movf	100,w,c	;volatile
  3651  001DBE  6E0A               	movwf	(??_ADCC_GetConversionResult+1)^0,c
  3652  001DC0  6A09               	clrf	??_ADCC_GetConversionResult^0,c
  3653  001DC2  5063               	movf	99,w,c	;volatile
  3654  001DC4  2409               	addwf	??_ADCC_GetConversionResult^0,w,c
  3655  001DC6  6E07               	movwf	?_ADCC_GetConversionResult^0,c
  3656  001DC8  0E00               	movlw	0
  3657  001DCA  200A               	addwfc	(??_ADCC_GetConversionResult+1)^0,w,c
  3658  001DCC  6E08               	movwf	(?_ADCC_GetConversionResult+1)^0,c
  3659  001DCE  0012               	return		;funcret
  3660  001DD0                     __end_of_ADCC_GetConversionResult:
  3661                           	callstack 0
  3662                           
  3663 ;; *************** function _ADCC_DischargeSampleCapacitor *****************
  3664 ;; Defined at:
  3665 ;;		line 168 in file "mcc_generated_files/adcc.c"
  3666 ;; Parameters:    Size  Location     Type
  3667 ;;		None
  3668 ;; Auto vars:     Size  Location     Type
  3669 ;;		None
  3670 ;; Return value:  Size  Location     Type
  3671 ;;                  1    wreg      void 
  3672 ;; Registers used:
  3673 ;;		wreg, status,2
  3674 ;; Tracked objects:
  3675 ;;		On entry : 0/0
  3676 ;;		On exit  : 0/0
  3677 ;;		Unchanged: 0/0
  3678 ;; Data sizes:     COMRAM   BANK0   BANK1   BANK2   BANK3   BANK4   BANK5   BANK6   BANK7   BANK8   BANK9  BANK10  BANK1
      +1  BANK12  BANK13  BANK14
  3679 ;;      Params:         0       0       0       0       0       0       0       0       0       0       0       0       
      +0       0       0       0
  3680 ;;      Locals:         0       0       0       0       0       0       0       0       0       0       0       0       
      +0       0       0       0
  3681 ;;      Temps:          0       0       0       0       0       0       0       0       0       0       0       0       
      +0       0       0       0
  3682 ;;      Totals:         0       0       0       0       0       0       0       0       0       0       0       0       
      +0       0       0       0
  3683 ;;Total ram usage:        0 bytes
  3684 ;; Hardware stack levels used: 1
  3685 ;; Hardware stack levels required when called: 5
  3686 ;; This function calls:
  3687 ;;		Nothing
  3688 ;; This function is called by:
  3689 ;;		_Temperatura
  3690 ;;		_Luminosidade
  3691 ;; This function uses a non-reentrant model
  3692 ;;
  3693                           
  3694                           	psect	text32
  3695  001E40                     __ptext32:
  3696                           	callstack 0
  3697  001E40                     _ADCC_DischargeSampleCapacitor:
  3698                           	callstack 24
  3699  001E40                     
  3700                           ;adcc.c: 171: ADPCH = 0x3c;
  3701  001E40  0E3C               	movlw	60
  3702  001E42  010F               	movlb	15	; () banked
  3703  001E44  6F5F               	movwf	95,b	;volatile
  3704  001E46                     
  3705                           ; BSR set to: 15
  3706  001E46  0012               	return		;funcret
  3707  001E48                     __end_of_ADCC_DischargeSampleCapacitor:
  3708                           	callstack 0
  3709                           
  3710 ;; *************** function _EUSART1_is_rx_ready *****************
  3711 ;; Defined at:
  3712 ;;		line 99 in file "mcc_generated_files/eusart1.c"
  3713 ;; Parameters:    Size  Location     Type
  3714 ;;		None
  3715 ;; Auto vars:     Size  Location     Type
  3716 ;;		None
  3717 ;; Return value:  Size  Location     Type
  3718 ;;                  1    wreg      unsigned char 
  3719 ;; Registers used:
  3720 ;;		wreg
  3721 ;; Tracked objects:
  3722 ;;		On entry : 0/0
  3723 ;;		On exit  : 0/0
  3724 ;;		Unchanged: 0/0
  3725 ;; Data sizes:     COMRAM   BANK0   BANK1   BANK2   BANK3   BANK4   BANK5   BANK6   BANK7   BANK8   BANK9  BANK10  BANK1
      +1  BANK12  BANK13  BANK14
  3726 ;;      Params:         0       0       0       0       0       0       0       0       0       0       0       0       
      +0       0       0       0
  3727 ;;      Locals:         0       0       0       0       0       0       0       0       0       0       0       0       
      +0       0       0       0
  3728 ;;      Temps:          0       0       0       0       0       0       0       0       0       0       0       0       
      +0       0       0       0
  3729 ;;      Totals:         0       0       0       0       0       0       0       0       0       0       0       0       
      +0       0       0       0
  3730 ;;Total ram usage:        0 bytes
  3731 ;; Hardware stack levels used: 1
  3732 ;; Hardware stack levels required when called: 5
  3733 ;; This function calls:
  3734 ;;		Nothing
  3735 ;; This function is called by:
  3736 ;;		_main
  3737 ;; This function uses a non-reentrant model
  3738 ;;
  3739                           
  3740                           	psect	text33
  3741  001D68                     __ptext33:
  3742                           	callstack 0
  3743  001D68                     _EUSART1_is_rx_ready:
  3744                           	callstack 25
  3745  001D68                     
  3746                           ;eusart1.c: 101: return (bool)(PIR3bits.RC1IF);
  3747  001D68  010E               	movlb	14	; () banked
  3748  001D6A  BBCD               	btfsc	205,5,b	;volatile
  3749  001D6C  EFBA  F00E         	goto	u691
  3750  001D70  EFBD  F00E         	goto	u690
  3751  001D74                     u691:
  3752  001D74  0E01               	movlw	1
  3753  001D76  EFBE  F00E         	goto	u696
  3754  001D7A                     u690:
  3755  001D7A  0E00               	movlw	0
  3756  001D7C                     u696:
  3757  001D7C                     
  3758                           ; BSR set to: 14
  3759  001D7C  0012               	return		;funcret
  3760  001D7E                     __end_of_EUSART1_is_rx_ready:
  3761                           	callstack 0
  3762                           
  3763 ;; *************** function _EUSART1_Read *****************
  3764 ;; Defined at:
  3765 ;;		line 113 in file "mcc_generated_files/eusart1.c"
  3766 ;; Parameters:    Size  Location     Type
  3767 ;;		None
  3768 ;; Auto vars:     Size  Location     Type
  3769 ;;		None
  3770 ;; Return value:  Size  Location     Type
  3771 ;;                  1    wreg      unsigned char 
  3772 ;; Registers used:
  3773 ;;		wreg, status,2
  3774 ;; Tracked objects:
  3775 ;;		On entry : 0/0
  3776 ;;		On exit  : 0/0
  3777 ;;		Unchanged: 0/0
  3778 ;; Data sizes:     COMRAM   BANK0   BANK1   BANK2   BANK3   BANK4   BANK5   BANK6   BANK7   BANK8   BANK9  BANK10  BANK1
      +1  BANK12  BANK13  BANK14
  3779 ;;      Params:         0       0       0       0       0       0       0       0       0       0       0       0       
      +0       0       0       0
  3780 ;;      Locals:         0       0       0       0       0       0       0       0       0       0       0       0       
      +0       0       0       0
  3781 ;;      Temps:          0       0       0       0       0       0       0       0       0       0       0       0       
      +0       0       0       0
  3782 ;;      Totals:         0       0       0       0       0       0       0       0       0       0       0       0       
      +0       0       0       0
  3783 ;;Total ram usage:        0 bytes
  3784 ;; Hardware stack levels used: 1
  3785 ;; Hardware stack levels required when called: 5
  3786 ;; This function calls:
  3787 ;;		Nothing
  3788 ;; This function is called by:
  3789 ;;		_main
  3790 ;;		_getch
  3791 ;; This function uses a non-reentrant model
  3792 ;;
  3793                           
  3794                           	psect	text34
  3795  001CA8                     __ptext34:
  3796                           	callstack 0
  3797  001CA8                     _EUSART1_Read:
  3798                           	callstack 25
  3799  001CA8                     l551:
  3800  001CA8  010E               	movlb	14	; () banked
  3801  001CAA  ABCD               	btfss	205,5,b	;volatile
  3802  001CAC  EF5A  F00E         	goto	u701
  3803  001CB0  EF5C  F00E         	goto	u700
  3804  001CB4                     u701:
  3805  001CB4  EF54  F00E         	goto	l551
  3806  001CB8                     u700:
  3807  001CB8                     
  3808                           ; BSR set to: 14
  3809                           ;eusart1.c: 117: };eusart1.c: 119: eusart1RxLastError.status = 0;
  3810  001CB8  0E00               	movlw	0
  3811  001CBA  6E4C               	movwf	_eusart1RxLastError^0,c	;volatile
  3812  001CBC                     
  3813                           ; BSR set to: 14
  3814                           ;eusart1.c: 121: if(1 == RC1STAbits.OERR)
  3815  001CBC  A29D               	btfss	157,1,c	;volatile
  3816  001CBE  EF63  F00E         	goto	u711
  3817  001CC2  EF65  F00E         	goto	u710
  3818  001CC6                     u711:
  3819  001CC6  EF67  F00E         	goto	l1979
  3820  001CCA                     u710:
  3821  001CCA                     
  3822                           ; BSR set to: 14
  3823                           ;eusart1.c: 122: {;eusart1.c: 125: RC1STAbits.CREN = 0;
  3824  001CCA  989D               	bcf	157,4,c	;volatile
  3825                           
  3826                           ;eusart1.c: 126: RC1STAbits.CREN = 1;
  3827  001CCC  889D               	bsf	157,4,c	;volatile
  3828  001CCE                     l1979:
  3829                           
  3830                           ; BSR set to: 14
  3831                           ;eusart1.c: 127: };eusart1.c: 129: return RC1REG;
  3832  001CCE  5099               	movf	153,w,c	;volatile
  3833  001CD0                     
  3834                           ; BSR set to: 14
  3835  001CD0  0012               	return		;funcret
  3836  001CD2                     __end_of_EUSART1_Read:
  3837                           	callstack 0
  3838                           
  3839 ;; *************** function _Alarme_Temperatura *****************
  3840 ;; Defined at:
  3841 ;;		line 95 in file "main.c"
  3842 ;; Parameters:    Size  Location     Type
  3843 ;;		None
  3844 ;; Auto vars:     Size  Location     Type
  3845 ;;		None
  3846 ;; Return value:  Size  Location     Type
  3847 ;;                  2    6[COMRAM] int 
  3848 ;; Registers used:
  3849 ;;		wreg, status,2, status,0
  3850 ;; Tracked objects:
  3851 ;;		On entry : 0/0
  3852 ;;		On exit  : 0/0
  3853 ;;		Unchanged: 0/0
  3854 ;; Data sizes:     COMRAM   BANK0   BANK1   BANK2   BANK3   BANK4   BANK5   BANK6   BANK7   BANK8   BANK9  BANK10  BANK1
      +1  BANK12  BANK13  BANK14
  3855 ;;      Params:         2       0       0       0       0       0       0       0       0       0       0       0       
      +0       0       0       0
  3856 ;;      Locals:         0       0       0       0       0       0       0       0       0       0       0       0       
      +0       0       0       0
  3857 ;;      Temps:          2       0       0       0       0       0       0       0       0       0       0       0       
      +0       0       0       0
  3858 ;;      Totals:         4       0       0       0       0       0       0       0       0       0       0       0       
      +0       0       0       0
  3859 ;;Total ram usage:        4 bytes
  3860 ;; Hardware stack levels used: 1
  3861 ;; Hardware stack levels required when called: 5
  3862 ;; This function calls:
  3863 ;;		Nothing
  3864 ;; This function is called by:
  3865 ;;		_main
  3866 ;; This function uses a non-reentrant model
  3867 ;;
  3868                           
  3869                           	psect	text35
  3870  001792                     __ptext35:
  3871                           	callstack 0
  3872  001792                     _Alarme_Temperatura:
  3873                           	callstack 25
  3874  001792                     
  3875                           ;main.c: 96: if (temperatura > 15 && temperatura < 30) {
  3876  001792  BE4B               	btfsc	(_temperatura+1)^0,7,c
  3877  001794  EFD5  F00B         	goto	u1521
  3878  001798  504B               	movf	(_temperatura+1)^0,w,c
  3879  00179A  E109               	bnz	u1520
  3880  00179C  0E10               	movlw	16
  3881  00179E  5C4A               	subwf	_temperatura^0,w,c
  3882  0017A0  A0D8               	btfss	status,0,c
  3883  0017A2  EFD5  F00B         	goto	u1521
  3884  0017A6  EFD7  F00B         	goto	u1520
  3885  0017AA                     u1521:
  3886  0017AA  EFE8  F00B         	goto	l647
  3887  0017AE                     u1520:
  3888  0017AE  BE4B               	btfsc	(_temperatura+1)^0,7,c
  3889  0017B0  EFE5  F00B         	goto	u1530
  3890  0017B4  504B               	movf	(_temperatura+1)^0,w,c
  3891  0017B6  E107               	bnz	u1531
  3892  0017B8  0E1E               	movlw	30
  3893  0017BA  5C4A               	subwf	_temperatura^0,w,c
  3894  0017BC  B0D8               	btfsc	status,0,c
  3895  0017BE  EFE3  F00B         	goto	u1531
  3896  0017C2  EFE5  F00B         	goto	u1530
  3897  0017C6                     u1531:
  3898  0017C6  EFE8  F00B         	goto	l647
  3899  0017CA                     u1530:
  3900  0017CA  8083               	bsf	131,0,c	;volatile
  3901  0017CC  EF04  F00C         	goto	l654
  3902  0017D0                     l647:
  3903  0017D0  9083               	bcf	131,0,c	;volatile
  3904  0017D2                     
  3905                           ;main.c: 102: };main.c: 103: if (temperatura >= 30) {
  3906  0017D2  BE4B               	btfsc	(_temperatura+1)^0,7,c
  3907  0017D4  EFF5  F00B         	goto	u1541
  3908  0017D8  504B               	movf	(_temperatura+1)^0,w,c
  3909  0017DA  E109               	bnz	u1540
  3910  0017DC  0E1E               	movlw	30
  3911  0017DE  5C4A               	subwf	_temperatura^0,w,c
  3912  0017E0  A0D8               	btfss	status,0,c
  3913  0017E2  EFF5  F00B         	goto	u1541
  3914  0017E6  EFF7  F00B         	goto	u1540
  3915  0017EA                     u1541:
  3916  0017EA  EF04  F00C         	goto	l654
  3917  0017EE                     u1540:
  3918  0017EE  8685               	bsf	133,3,c	;volatile
  3919  0017F0                     
  3920                           ;main.c: 105: _delay((unsigned long)((500)*(8000000/4000.0)));
  3921  0017F0  0E06               	movlw	6
  3922  0017F2  6E0A               	movwf	(??_Alarme_Temperatura+1)^0,c
  3923  0017F4  0E13               	movlw	19
  3924  0017F6  6E09               	movwf	??_Alarme_Temperatura^0,c
  3925  0017F8  0EAE               	movlw	174
  3926  0017FA                     u1647:
  3927  0017FA  2EE8               	decfsz	wreg,f,c
  3928  0017FC  D7FE               	bra	u1647
  3929  0017FE  2E09               	decfsz	??_Alarme_Temperatura^0,f,c
  3930  001800  D7FC               	bra	u1647
  3931  001802  2E0A               	decfsz	(??_Alarme_Temperatura+1)^0,f,c
  3932  001804  D7FA               	bra	u1647
  3933  001806  9685               	bcf	133,3,c	;volatile
  3934  001808                     l654:
  3935  001808  0012               	return		;funcret
  3936  00180A                     __end_of_Alarme_Temperatura:
  3937                           	callstack 0
  3938                           
  3939 ;; *************** function _Alarme_Luminosidade *****************
  3940 ;; Defined at:
  3941 ;;		line 113 in file "main.c"
  3942 ;; Parameters:    Size  Location     Type
  3943 ;;		None
  3944 ;; Auto vars:     Size  Location     Type
  3945 ;;		None
  3946 ;; Return value:  Size  Location     Type
  3947 ;;                  2    6[COMRAM] int 
  3948 ;; Registers used:
  3949 ;;		wreg, status,2, status,0
  3950 ;; Tracked objects:
  3951 ;;		On entry : 0/0
  3952 ;;		On exit  : 0/0
  3953 ;;		Unchanged: 0/0
  3954 ;; Data sizes:     COMRAM   BANK0   BANK1   BANK2   BANK3   BANK4   BANK5   BANK6   BANK7   BANK8   BANK9  BANK10  BANK1
      +1  BANK12  BANK13  BANK14
  3955 ;;      Params:         2       0       0       0       0       0       0       0       0       0       0       0       
      +0       0       0       0
  3956 ;;      Locals:         0       0       0       0       0       0       0       0       0       0       0       0       
      +0       0       0       0
  3957 ;;      Temps:          2       0       0       0       0       0       0       0       0       0       0       0       
      +0       0       0       0
  3958 ;;      Totals:         4       0       0       0       0       0       0       0       0       0       0       0       
      +0       0       0       0
  3959 ;;Total ram usage:        4 bytes
  3960 ;; Hardware stack levels used: 1
  3961 ;; Hardware stack levels required when called: 5
  3962 ;; This function calls:
  3963 ;;		Nothing
  3964 ;; This function is called by:
  3965 ;;		_main
  3966 ;; This function uses a non-reentrant model
  3967 ;;
  3968                           
  3969                           	psect	text36
  3970  0019D0                     __ptext36:
  3971                           	callstack 0
  3972  0019D0                     _Alarme_Luminosidade:
  3973                           	callstack 25
  3974  0019D0                     
  3975                           ;main.c: 114: if (luminosidade > 500) {
  3976  0019D0  BE49               	btfsc	(_luminosidade+1)^0,7,c
  3977  0019D2  EFF4  F00C         	goto	u1551
  3978  0019D6  0EF5               	movlw	245
  3979  0019D8  5C48               	subwf	_luminosidade^0,w,c
  3980  0019DA  0E01               	movlw	1
  3981  0019DC  5849               	subwfb	(_luminosidade+1)^0,w,c
  3982  0019DE  A0D8               	btfss	status,0,c
  3983  0019E0  EFF4  F00C         	goto	u1551
  3984  0019E4  EFF6  F00C         	goto	u1550
  3985  0019E8                     u1551:
  3986  0019E8  EFF9  F00C         	goto	l661
  3987  0019EC                     u1550:
  3988  0019EC  8485               	bsf	133,2,c	;volatile
  3989  0019EE  EFFA  F00C         	goto	l2681
  3990  0019F2                     l661:
  3991  0019F2  9485               	bcf	133,2,c	;volatile
  3992  0019F4                     l2681:
  3993                           
  3994                           ;main.c: 120: };main.c: 121: if (luminosidade < 500) {
  3995  0019F4  BE49               	btfsc	(_luminosidade+1)^0,7,c
  3996  0019F6  EF08  F00D         	goto	u1560
  3997  0019FA  0EF4               	movlw	244
  3998  0019FC  5C48               	subwf	_luminosidade^0,w,c
  3999  0019FE  0E01               	movlw	1
  4000  001A00  5849               	subwfb	(_luminosidade+1)^0,w,c
  4001  001A02  B0D8               	btfsc	status,0,c
  4002  001A04  EF06  F00D         	goto	u1561
  4003  001A08  EF08  F00D         	goto	u1560
  4004  001A0C                     u1561:
  4005  001A0C  EF15  F00D         	goto	l668
  4006  001A10                     u1560:
  4007  001A10  8485               	bsf	133,2,c	;volatile
  4008  001A12                     
  4009                           ;main.c: 123: _delay((unsigned long)((500)*(8000000/4000.0)));
  4010  001A12  0E06               	movlw	6
  4011  001A14  6E0A               	movwf	(??_Alarme_Luminosidade+1)^0,c
  4012  001A16  0E13               	movlw	19
  4013  001A18  6E09               	movwf	??_Alarme_Luminosidade^0,c
  4014  001A1A  0EAE               	movlw	174
  4015  001A1C                     u1657:
  4016  001A1C  2EE8               	decfsz	wreg,f,c
  4017  001A1E  D7FE               	bra	u1657
  4018  001A20  2E09               	decfsz	??_Alarme_Luminosidade^0,f,c
  4019  001A22  D7FC               	bra	u1657
  4020  001A24  2E0A               	decfsz	(??_Alarme_Luminosidade+1)^0,f,c
  4021  001A26  D7FA               	bra	u1657
  4022  001A28  9485               	bcf	133,2,c	;volatile
  4023  001A2A                     l668:
  4024  001A2A  0012               	return		;funcret
  4025  001A2C                     __end_of_Alarme_Luminosidade:
  4026                           	callstack 0
  4027                           
  4028 ;; *************** function _INTERRUPT_InterruptManager *****************
  4029 ;; Defined at:
  4030 ;;		line 58 in file "mcc_generated_files/interrupt_manager.c"
  4031 ;; Parameters:    Size  Location     Type
  4032 ;;		None
  4033 ;; Auto vars:     Size  Location     Type
  4034 ;;		None
  4035 ;; Return value:  Size  Location     Type
  4036 ;;                  1    wreg      void 
  4037 ;; Registers used:
  4038 ;;		wreg, status,2, status,0, pcl, pclath, pclatu, tosl, cstack
  4039 ;; Tracked objects:
  4040 ;;		On entry : 0/0
  4041 ;;		On exit  : 0/0
  4042 ;;		Unchanged: 0/0
  4043 ;; Data sizes:     COMRAM   BANK0   BANK1   BANK2   BANK3   BANK4   BANK5   BANK6   BANK7   BANK8   BANK9  BANK10  BANK1
      +1  BANK12  BANK13  BANK14
  4044 ;;      Params:         0       0       0       0       0       0       0       0       0       0       0       0       
      +0       0       0       0
  4045 ;;      Locals:         0       0       0       0       0       0       0       0       0       0       0       0       
      +0       0       0       0
  4046 ;;      Temps:          2       0       0       0       0       0       0       0       0       0       0       0       
      +0       0       0       0
  4047 ;;      Totals:         2       0       0       0       0       0       0       0       0       0       0       0       
      +0       0       0       0
  4048 ;;Total ram usage:        2 bytes
  4049 ;; Hardware stack levels used: 1
  4050 ;; Hardware stack levels required when called: 4
  4051 ;; This function calls:
  4052 ;;		_PIN_MANAGER_IOC
  4053 ;;		_TMR0_ISR
  4054 ;; This function is called by:
  4055 ;;		Interrupt level 2
  4056 ;; This function uses a non-reentrant model
  4057 ;;
  4058                           
  4059                           	psect	intcode
  4060  000008                     __pintcode:
  4061                           	callstack 0
  4062  000008                     _INTERRUPT_InterruptManager:
  4063                           	callstack 22
  4064                           
  4065                           ;incstack = 0
  4066  000008  824D               	bsf	int$flags,1,c	;set compiler interrupt flag (level 2)
  4067  00000A  CFFA F005          	movff	pclath,??_INTERRUPT_InterruptManager
  4068  00000E  CFFB F006          	movff	pclatu,??_INTERRUPT_InterruptManager+1
  4069  000012                     
  4070                           ;interrupt_manager.c: 61: if(PIE0bits.TMR0IE == 1 && PIR0bits.TMR0IF == 1)
  4071  000012  010E               	movlb	14	; () banked
  4072  000014  ABC2               	btfss	194,5,b	;volatile
  4073  000016  EF0F  F000         	goto	i2u159_41
  4074  00001A  EF11  F000         	goto	i2u159_40
  4075  00001E                     i2u159_41:
  4076  00001E  EF1C  F000         	goto	i2l487
  4077  000022                     i2u159_40:
  4078  000022                     
  4079                           ; BSR set to: 14
  4080  000022  ABCA               	btfss	202,5,b	;volatile
  4081  000024  EF16  F000         	goto	i2u160_41
  4082  000028  EF18  F000         	goto	i2u160_40
  4083  00002C                     i2u160_41:
  4084  00002C  EF1C  F000         	goto	i2l487
  4085  000030                     i2u160_40:
  4086  000030                     
  4087                           ; BSR set to: 14
  4088                           ;interrupt_manager.c: 62: {;interrupt_manager.c: 63: TMR0_ISR();
  4089  000030  ECE8  F00E         	call	_TMR0_ISR	;wreg free
  4090                           
  4091                           ;interrupt_manager.c: 64: }
  4092  000034  EF2C  F000         	goto	i2l491
  4093  000038                     i2l487:
  4094                           
  4095                           ; BSR set to: 14
  4096                           ;interrupt_manager.c: 65: else if(PIE0bits.IOCIE == 1 && PIR0bits.IOCIF == 1)
  4097  000038  A9C2               	btfss	194,4,b	;volatile
  4098  00003A  EF21  F000         	goto	i2u161_41
  4099  00003E  EF23  F000         	goto	i2u161_40
  4100  000042                     i2u161_41:
  4101  000042  EF2C  F000         	goto	i2l491
  4102  000046                     i2u161_40:
  4103  000046                     
  4104                           ; BSR set to: 14
  4105  000046  A9CA               	btfss	202,4,b	;volatile
  4106  000048  EF28  F000         	goto	i2u162_41
  4107  00004C  EF2A  F000         	goto	i2u162_40
  4108  000050                     i2u162_41:
  4109  000050  EF2C  F000         	goto	i2l491
  4110  000054                     i2u162_40:
  4111  000054                     
  4112                           ; BSR set to: 14
  4113                           ;interrupt_manager.c: 66: {;interrupt_manager.c: 67: PIN_MANAGER_IOC();
  4114  000054  ECBF  F00E         	call	_PIN_MANAGER_IOC	;wreg free
  4115  000058                     i2l491:
  4116  000058  C006  FFFB         	movff	??_INTERRUPT_InterruptManager+1,pclatu
  4117  00005C  C005  FFFA         	movff	??_INTERRUPT_InterruptManager,pclath
  4118  000060  924D               	bcf	int$flags,1,c	;clear compiler interrupt flag (level 2)
  4119  000062  0011               	retfie		f
  4120  000064                     __end_of_INTERRUPT_InterruptManager:
  4121                           	callstack 0
  4122                           
  4123 ;; *************** function _TMR0_ISR *****************
  4124 ;; Defined at:
  4125 ;;		line 134 in file "mcc_generated_files/tmr0.c"
  4126 ;; Parameters:    Size  Location     Type
  4127 ;;		None
  4128 ;; Auto vars:     Size  Location     Type
  4129 ;;		None
  4130 ;; Return value:  Size  Location     Type
  4131 ;;                  1    wreg      void 
  4132 ;; Registers used:
  4133 ;;		wreg, status,2, status,0, pcl, pclath, pclatu, tosl, cstack
  4134 ;; Tracked objects:
  4135 ;;		On entry : 0/0
  4136 ;;		On exit  : 0/0
  4137 ;;		Unchanged: 0/0
  4138 ;; Data sizes:     COMRAM   BANK0   BANK1   BANK2   BANK3   BANK4   BANK5   BANK6   BANK7   BANK8   BANK9  BANK10  BANK1
      +1  BANK12  BANK13  BANK14
  4139 ;;      Params:         0       0       0       0       0       0       0       0       0       0       0       0       
      +0       0       0       0
  4140 ;;      Locals:         0       0       0       0       0       0       0       0       0       0       0       0       
      +0       0       0       0
  4141 ;;      Temps:          0       0       0       0       0       0       0       0       0       0       0       0       
      +0       0       0       0
  4142 ;;      Totals:         0       0       0       0       0       0       0       0       0       0       0       0       
      +0       0       0       0
  4143 ;;Total ram usage:        0 bytes
  4144 ;; Hardware stack levels used: 1
  4145 ;; Hardware stack levels required when called: 3
  4146 ;; This function calls:
  4147 ;;		_TMR0_CallBack
  4148 ;; This function is called by:
  4149 ;;		_INTERRUPT_InterruptManager
  4150 ;; This function uses a non-reentrant model
  4151 ;;
  4152                           
  4153                           	psect	text38
  4154  001DD0                     __ptext38:
  4155                           	callstack 0
  4156  001DD0                     _TMR0_ISR:
  4157                           	callstack 22
  4158  001DD0                     
  4159                           ;tmr0.c: 137: PIR0bits.TMR0IF = 0;
  4160  001DD0  010E               	movlb	14	; () banked
  4161  001DD2  9BCA               	bcf	202,5,b	;volatile
  4162  001DD4                     
  4163                           ; BSR set to: 14
  4164                           ;tmr0.c: 139: TMR0H = timer0ReloadVal16bit >> 8;
  4165  001DD4  5045               	movf	(_timer0ReloadVal16bit+1)^0,w,c	;volatile
  4166  001DD6  6ED4               	movwf	212,c	;volatile
  4167  001DD8                     
  4168                           ; BSR set to: 14
  4169                           ;tmr0.c: 140: TMR0L = (uint8_t) timer0ReloadVal16bit;
  4170  001DD8  C044  FFD3         	movff	_timer0ReloadVal16bit,4051	;volatile
  4171  001DDC                     
  4172                           ; BSR set to: 14
  4173                           ;tmr0.c: 144: TMR0_CallBack();
  4174  001DDC  EC3E  F00E         	call	_TMR0_CallBack	;wreg free
  4175  001DE0  0012               	return		;funcret
  4176  001DE2                     __end_of_TMR0_ISR:
  4177                           	callstack 0
  4178                           
  4179 ;; *************** function _TMR0_CallBack *****************
  4180 ;; Defined at:
  4181 ;;		line 149 in file "mcc_generated_files/tmr0.c"
  4182 ;; Parameters:    Size  Location     Type
  4183 ;;		None
  4184 ;; Auto vars:     Size  Location     Type
  4185 ;;		None
  4186 ;; Return value:  Size  Location     Type
  4187 ;;                  1    wreg      void 
  4188 ;; Registers used:
  4189 ;;		wreg, status,2, status,0, pcl, pclath, pclatu, tosl, cstack
  4190 ;; Tracked objects:
  4191 ;;		On entry : 0/0
  4192 ;;		On exit  : 0/0
  4193 ;;		Unchanged: 0/0
  4194 ;; Data sizes:     COMRAM   BANK0   BANK1   BANK2   BANK3   BANK4   BANK5   BANK6   BANK7   BANK8   BANK9  BANK10  BANK1
      +1  BANK12  BANK13  BANK14
  4195 ;;      Params:         0       0       0       0       0       0       0       0       0       0       0       0       
      +0       0       0       0
  4196 ;;      Locals:         0       0       0       0       0       0       0       0       0       0       0       0       
      +0       0       0       0
  4197 ;;      Temps:          0       0       0       0       0       0       0       0       0       0       0       0       
      +0       0       0       0
  4198 ;;      Totals:         0       0       0       0       0       0       0       0       0       0       0       0       
      +0       0       0       0
  4199 ;;Total ram usage:        0 bytes
  4200 ;; Hardware stack levels used: 1
  4201 ;; Hardware stack levels required when called: 2
  4202 ;; This function calls:
  4203 ;;		Absolute function
  4204 ;;		_TMR0_DefaultInterruptHandler
  4205 ;;		_myTimer0ISR
  4206 ;; This function is called by:
  4207 ;;		_TMR0_ISR
  4208 ;; This function uses a non-reentrant model
  4209 ;;
  4210                           
  4211                           	psect	text39
  4212  001C7C                     __ptext39:
  4213                           	callstack 0
  4214  001C7C                     _TMR0_CallBack:
  4215                           	callstack 22
  4216  001C7C                     
  4217                           ;tmr0.c: 153: if(TMR0_InterruptHandler)
  4218  001C7C  5042               	movf	_TMR0_InterruptHandler^0,w,c
  4219  001C7E  1043               	iorwf	(_TMR0_InterruptHandler+1)^0,w,c
  4220  001C80  B4D8               	btfsc	status,2,c
  4221  001C82  EF45  F00E         	goto	i2u101_41
  4222  001C86  EF47  F00E         	goto	i2u101_40
  4223  001C8A                     i2u101_41:
  4224  001C8A  EF53  F00E         	goto	i2l354
  4225  001C8E                     i2u101_40:
  4226  001C8E                     
  4227                           ;tmr0.c: 154: {;tmr0.c: 155: TMR0_InterruptHandler();
  4228  001C8E  D802               	call	i2u102_48
  4229  001C90  EF53  F00E         	goto	i2u102_49
  4230  001C94                     i2u102_48:
  4231  001C94  0005               	push	
  4232  001C96  6EFA               	movwf	pclath,c
  4233  001C98  5042               	movf	_TMR0_InterruptHandler^0,w,c
  4234  001C9A  6EFD               	movwf	tosl,c
  4235  001C9C  5043               	movf	(_TMR0_InterruptHandler+1)^0,w,c
  4236  001C9E  6EFE               	movwf	tosh,c
  4237  001CA0  6AFF               	clrf	tosu,c
  4238  001CA2  50FA               	movf	pclath,w,c
  4239  001CA4  0012               	return		;indir
  4240  001CA6                     i2u102_49:
  4241  001CA6                     i2l354:
  4242  001CA6  0012               	return		;funcret
  4243  001CA8                     __end_of_TMR0_CallBack:
  4244                           	callstack 0
  4245                           
  4246 ;; *************** function _TMR0_DefaultInterruptHandler *****************
  4247 ;; Defined at:
  4248 ;;		line 163 in file "mcc_generated_files/tmr0.c"
  4249 ;; Parameters:    Size  Location     Type
  4250 ;;		None
  4251 ;; Auto vars:     Size  Location     Type
  4252 ;;		None
  4253 ;; Return value:  Size  Location     Type
  4254 ;;                  1    wreg      void 
  4255 ;; Registers used:
  4256 ;;		None
  4257 ;; Tracked objects:
  4258 ;;		On entry : 0/0
  4259 ;;		On exit  : 0/0
  4260 ;;		Unchanged: 0/0
  4261 ;; Data sizes:     COMRAM   BANK0   BANK1   BANK2   BANK3   BANK4   BANK5   BANK6   BANK7   BANK8   BANK9  BANK10  BANK1
      +1  BANK12  BANK13  BANK14
  4262 ;;      Params:         0       0       0       0       0       0       0       0       0       0       0       0       
      +0       0       0       0
  4263 ;;      Locals:         0       0       0       0       0       0       0       0       0       0       0       0       
      +0       0       0       0
  4264 ;;      Temps:          0       0       0       0       0       0       0       0       0       0       0       0       
      +0       0       0       0
  4265 ;;      Totals:         0       0       0       0       0       0       0       0       0       0       0       0       
      +0       0       0       0
  4266 ;;Total ram usage:        0 bytes
  4267 ;; Hardware stack levels used: 1
  4268 ;; This function calls:
  4269 ;;		Nothing
  4270 ;; This function is called by:
  4271 ;;		_TMR0_Initialize
  4272 ;;		_TMR0_CallBack
  4273 ;; This function uses a non-reentrant model
  4274 ;;
  4275                           
  4276                           	psect	text40
  4277  001E4C                     __ptext40:
  4278                           	callstack 0
  4279  001E4C                     _TMR0_DefaultInterruptHandler:
  4280                           	callstack 23
  4281  001E4C  0012               	return		;funcret
  4282  001E4E                     __end_of_TMR0_DefaultInterruptHandler:
  4283                           	callstack 0
  4284                           
  4285 ;; *************** function _myTimer0ISR *****************
  4286 ;; Defined at:
  4287 ;;		line 46 in file "main.c"
  4288 ;; Parameters:    Size  Location     Type
  4289 ;;		None
  4290 ;; Auto vars:     Size  Location     Type
  4291 ;;  lum             2    0        int 
  4292 ;;  temp            2    0        int 
  4293 ;; Return value:  Size  Location     Type
  4294 ;;                  1    wreg      void 
  4295 ;; Registers used:
  4296 ;;		wreg, status,2, status,0, cstack
  4297 ;; Tracked objects:
  4298 ;;		On entry : 0/0
  4299 ;;		On exit  : 0/0
  4300 ;;		Unchanged: 0/0
  4301 ;; Data sizes:     COMRAM   BANK0   BANK1   BANK2   BANK3   BANK4   BANK5   BANK6   BANK7   BANK8   BANK9  BANK10  BANK1
      +1  BANK12  BANK13  BANK14
  4302 ;;      Params:         0       0       0       0       0       0       0       0       0       0       0       0       
      +0       0       0       0
  4303 ;;      Locals:         0       0       0       0       0       0       0       0       0       0       0       0       
      +0       0       0       0
  4304 ;;      Temps:          0       0       0       0       0       0       0       0       0       0       0       0       
      +0       0       0       0
  4305 ;;      Totals:         0       0       0       0       0       0       0       0       0       0       0       0       
      +0       0       0       0
  4306 ;;Total ram usage:        0 bytes
  4307 ;; Hardware stack levels used: 1
  4308 ;; Hardware stack levels required when called: 1
  4309 ;; This function calls:
  4310 ;;		i2_Alarme_Luminosidade
  4311 ;;		i2_Alarme_Temperatura
  4312 ;; This function is called by:
  4313 ;;		_main
  4314 ;;		_TMR0_CallBack
  4315 ;; This function uses a non-reentrant model
  4316 ;;
  4317                           
  4318                           	psect	text41
  4319  001E36                     __ptext41:
  4320                           	callstack 0
  4321  001E36                     _myTimer0ISR:
  4322                           	callstack 22
  4323  001E36  EC05  F00C         	call	i2_Alarme_Temperatura	;wreg free
  4324  001E3A  EC16  F00D         	call	i2_Alarme_Luminosidade	;wreg free
  4325  001E3E  0012               	return		;funcret
  4326  001E40                     __end_of_myTimer0ISR:
  4327                           	callstack 0
  4328                           
  4329 ;; *************** function i2_Alarme_Temperatura *****************
  4330 ;; Defined at:
  4331 ;;		line 95 in file "main.c"
  4332 ;; Parameters:    Size  Location     Type
  4333 ;;		None
  4334 ;; Auto vars:     Size  Location     Type
  4335 ;;		None
  4336 ;; Return value:  Size  Location     Type
  4337 ;;                  2    0[COMRAM] int 
  4338 ;; Registers used:
  4339 ;;		wreg, status,2, status,0
  4340 ;; Tracked objects:
  4341 ;;		On entry : 0/0
  4342 ;;		On exit  : 0/0
  4343 ;;		Unchanged: 0/0
  4344 ;; Data sizes:     COMRAM   BANK0   BANK1   BANK2   BANK3   BANK4   BANK5   BANK6   BANK7   BANK8   BANK9  BANK10  BANK1
      +1  BANK12  BANK13  BANK14
  4345 ;;      Params:         2       0       0       0       0       0       0       0       0       0       0       0       
      +0       0       0       0
  4346 ;;      Locals:         0       0       0       0       0       0       0       0       0       0       0       0       
      +0       0       0       0
  4347 ;;      Temps:          2       0       0       0       0       0       0       0       0       0       0       0       
      +0       0       0       0
  4348 ;;      Totals:         4       0       0       0       0       0       0       0       0       0       0       0       
      +0       0       0       0
  4349 ;;Total ram usage:        4 bytes
  4350 ;; Hardware stack levels used: 1
  4351 ;; This function calls:
  4352 ;;		Nothing
  4353 ;; This function is called by:
  4354 ;;		_myTimer0ISR
  4355 ;; This function uses a non-reentrant model
  4356 ;;
  4357                           
  4358                           	psect	text42
  4359  00180A                     __ptext42:
  4360                           	callstack 0
  4361  00180A                     i2_Alarme_Temperatura:
  4362                           	callstack 22
  4363  00180A                     
  4364                           ;main.c: 96: if (temperatura > 15 && temperatura < 30) {
  4365  00180A  BE4B               	btfsc	(_temperatura+1)^0,7,c
  4366  00180C  EF11  F00C         	goto	i2u90_41
  4367  001810  504B               	movf	(_temperatura+1)^0,w,c
  4368  001812  E109               	bnz	i2u90_40
  4369  001814  0E10               	movlw	16
  4370  001816  5C4A               	subwf	_temperatura^0,w,c
  4371  001818  A0D8               	btfss	status,0,c
  4372  00181A  EF11  F00C         	goto	i2u90_41
  4373  00181E  EF13  F00C         	goto	i2u90_40
  4374  001822                     i2u90_41:
  4375  001822  EF24  F00C         	goto	i2l647
  4376  001826                     i2u90_40:
  4377  001826  BE4B               	btfsc	(_temperatura+1)^0,7,c
  4378  001828  EF21  F00C         	goto	i2u91_40
  4379  00182C  504B               	movf	(_temperatura+1)^0,w,c
  4380  00182E  E107               	bnz	i2u91_41
  4381  001830  0E1E               	movlw	30
  4382  001832  5C4A               	subwf	_temperatura^0,w,c
  4383  001834  B0D8               	btfsc	status,0,c
  4384  001836  EF1F  F00C         	goto	i2u91_41
  4385  00183A  EF21  F00C         	goto	i2u91_40
  4386  00183E                     i2u91_41:
  4387  00183E  EF24  F00C         	goto	i2l647
  4388  001842                     i2u91_40:
  4389  001842  8083               	bsf	131,0,c	;volatile
  4390  001844  EF40  F00C         	goto	i2l654
  4391  001848                     i2l647:
  4392  001848  9083               	bcf	131,0,c	;volatile
  4393  00184A                     
  4394                           ;main.c: 102: };main.c: 103: if (temperatura >= 30) {
  4395  00184A  BE4B               	btfsc	(_temperatura+1)^0,7,c
  4396  00184C  EF31  F00C         	goto	i2u92_41
  4397  001850  504B               	movf	(_temperatura+1)^0,w,c
  4398  001852  E109               	bnz	i2u92_40
  4399  001854  0E1E               	movlw	30
  4400  001856  5C4A               	subwf	_temperatura^0,w,c
  4401  001858  A0D8               	btfss	status,0,c
  4402  00185A  EF31  F00C         	goto	i2u92_41
  4403  00185E  EF33  F00C         	goto	i2u92_40
  4404  001862                     i2u92_41:
  4405  001862  EF40  F00C         	goto	i2l654
  4406  001866                     i2u92_40:
  4407  001866  8685               	bsf	133,3,c	;volatile
  4408  001868                     
  4409                           ;main.c: 105: _delay((unsigned long)((500)*(8000000/4000.0)));
  4410  001868  0E06               	movlw	6
  4411  00186A  6E04               	movwf	(??i2_Alarme_Temperatura+1)^0,c
  4412  00186C  0E13               	movlw	19
  4413  00186E  6E03               	movwf	??i2_Alarme_Temperatura^0,c
  4414  001870  0EAE               	movlw	174
  4415  001872                     i2u166_47:
  4416  001872  2EE8               	decfsz	wreg,f,c
  4417  001874  D7FE               	bra	i2u166_47
  4418  001876  2E03               	decfsz	??i2_Alarme_Temperatura^0,f,c
  4419  001878  D7FC               	bra	i2u166_47
  4420  00187A  2E04               	decfsz	(??i2_Alarme_Temperatura+1)^0,f,c
  4421  00187C  D7FA               	bra	i2u166_47
  4422  00187E  9685               	bcf	133,3,c	;volatile
  4423  001880                     i2l654:
  4424  001880  0012               	return		;funcret
  4425  001882                     __end_ofi2_Alarme_Temperatura:
  4426                           	callstack 0
  4427                           
  4428 ;; *************** function i2_Alarme_Luminosidade *****************
  4429 ;; Defined at:
  4430 ;;		line 113 in file "main.c"
  4431 ;; Parameters:    Size  Location     Type
  4432 ;;		None
  4433 ;; Auto vars:     Size  Location     Type
  4434 ;;		None
  4435 ;; Return value:  Size  Location     Type
  4436 ;;                  2    0[COMRAM] int 
  4437 ;; Registers used:
  4438 ;;		wreg, status,2, status,0
  4439 ;; Tracked objects:
  4440 ;;		On entry : 0/0
  4441 ;;		On exit  : 0/0
  4442 ;;		Unchanged: 0/0
  4443 ;; Data sizes:     COMRAM   BANK0   BANK1   BANK2   BANK3   BANK4   BANK5   BANK6   BANK7   BANK8   BANK9  BANK10  BANK1
      +1  BANK12  BANK13  BANK14
  4444 ;;      Params:         2       0       0       0       0       0       0       0       0       0       0       0       
      +0       0       0       0
  4445 ;;      Locals:         0       0       0       0       0       0       0       0       0       0       0       0       
      +0       0       0       0
  4446 ;;      Temps:          2       0       0       0       0       0       0       0       0       0       0       0       
      +0       0       0       0
  4447 ;;      Totals:         4       0       0       0       0       0       0       0       0       0       0       0       
      +0       0       0       0
  4448 ;;Total ram usage:        4 bytes
  4449 ;; Hardware stack levels used: 1
  4450 ;; This function calls:
  4451 ;;		Nothing
  4452 ;; This function is called by:
  4453 ;;		_myTimer0ISR
  4454 ;; This function uses a non-reentrant model
  4455 ;;
  4456                           
  4457                           	psect	text43
  4458  001A2C                     __ptext43:
  4459                           	callstack 0
  4460  001A2C                     i2_Alarme_Luminosidade:
  4461                           	callstack 22
  4462  001A2C                     
  4463                           ;main.c: 114: if (luminosidade > 500) {
  4464  001A2C  BE49               	btfsc	(_luminosidade+1)^0,7,c
  4465  001A2E  EF22  F00D         	goto	i2u93_41
  4466  001A32  0EF5               	movlw	245
  4467  001A34  5C48               	subwf	_luminosidade^0,w,c
  4468  001A36  0E01               	movlw	1
  4469  001A38  5849               	subwfb	(_luminosidade+1)^0,w,c
  4470  001A3A  A0D8               	btfss	status,0,c
  4471  001A3C  EF22  F00D         	goto	i2u93_41
  4472  001A40  EF24  F00D         	goto	i2u93_40
  4473  001A44                     i2u93_41:
  4474  001A44  EF27  F00D         	goto	i2l661
  4475  001A48                     i2u93_40:
  4476  001A48  8485               	bsf	133,2,c	;volatile
  4477  001A4A  EF28  F00D         	goto	i2l2231
  4478  001A4E                     i2l661:
  4479  001A4E  9485               	bcf	133,2,c	;volatile
  4480  001A50                     i2l2231:
  4481                           
  4482                           ;main.c: 120: };main.c: 121: if (luminosidade < 500) {
  4483  001A50  BE49               	btfsc	(_luminosidade+1)^0,7,c
  4484  001A52  EF36  F00D         	goto	i2u94_40
  4485  001A56  0EF4               	movlw	244
  4486  001A58  5C48               	subwf	_luminosidade^0,w,c
  4487  001A5A  0E01               	movlw	1
  4488  001A5C  5849               	subwfb	(_luminosidade+1)^0,w,c
  4489  001A5E  B0D8               	btfsc	status,0,c
  4490  001A60  EF34  F00D         	goto	i2u94_41
  4491  001A64  EF36  F00D         	goto	i2u94_40
  4492  001A68                     i2u94_41:
  4493  001A68  EF43  F00D         	goto	i2l668
  4494  001A6C                     i2u94_40:
  4495  001A6C  8485               	bsf	133,2,c	;volatile
  4496  001A6E                     
  4497                           ;main.c: 123: _delay((unsigned long)((500)*(8000000/4000.0)));
  4498  001A6E  0E06               	movlw	6
  4499  001A70  6E04               	movwf	(??i2_Alarme_Luminosidade+1)^0,c
  4500  001A72  0E13               	movlw	19
  4501  001A74  6E03               	movwf	??i2_Alarme_Luminosidade^0,c
  4502  001A76  0EAE               	movlw	174
  4503  001A78                     i2u167_47:
  4504  001A78  2EE8               	decfsz	wreg,f,c
  4505  001A7A  D7FE               	bra	i2u167_47
  4506  001A7C  2E03               	decfsz	??i2_Alarme_Luminosidade^0,f,c
  4507  001A7E  D7FC               	bra	i2u167_47
  4508  001A80  2E04               	decfsz	(??i2_Alarme_Luminosidade+1)^0,f,c
  4509  001A82  D7FA               	bra	i2u167_47
  4510  001A84  9485               	bcf	133,2,c	;volatile
  4511  001A86                     i2l668:
  4512  001A86  0012               	return		;funcret
  4513  001A88                     __end_ofi2_Alarme_Luminosidade:
  4514                           	callstack 0
  4515                           
  4516 ;; *************** function _PIN_MANAGER_IOC *****************
  4517 ;; Defined at:
  4518 ;;		line 135 in file "mcc_generated_files/pin_manager.c"
  4519 ;; Parameters:    Size  Location     Type
  4520 ;;		None
  4521 ;; Auto vars:     Size  Location     Type
  4522 ;;		None
  4523 ;; Return value:  Size  Location     Type
  4524 ;;                  1    wreg      void 
  4525 ;; Registers used:
  4526 ;;		wreg, status,2, status,0, pcl, pclath, pclatu, tosl, cstack
  4527 ;; Tracked objects:
  4528 ;;		On entry : 0/0
  4529 ;;		On exit  : 0/0
  4530 ;;		Unchanged: 0/0
  4531 ;; Data sizes:     COMRAM   BANK0   BANK1   BANK2   BANK3   BANK4   BANK5   BANK6   BANK7   BANK8   BANK9  BANK10  BANK1
      +1  BANK12  BANK13  BANK14
  4532 ;;      Params:         0       0       0       0       0       0       0       0       0       0       0       0       
      +0       0       0       0
  4533 ;;      Locals:         0       0       0       0       0       0       0       0       0       0       0       0       
      +0       0       0       0
  4534 ;;      Temps:          0       0       0       0       0       0       0       0       0       0       0       0       
      +0       0       0       0
  4535 ;;      Totals:         0       0       0       0       0       0       0       0       0       0       0       0       
      +0       0       0       0
  4536 ;;Total ram usage:        0 bytes
  4537 ;; Hardware stack levels used: 1
  4538 ;; Hardware stack levels required when called: 2
  4539 ;; This function calls:
  4540 ;;		_IOCBF4_ISR
  4541 ;; This function is called by:
  4542 ;;		_INTERRUPT_InterruptManager
  4543 ;; This function uses a non-reentrant model
  4544 ;;
  4545                           
  4546                           	psect	text44
  4547  001D7E                     __ptext44:
  4548                           	callstack 0
  4549  001D7E                     _PIN_MANAGER_IOC:
  4550                           	callstack 23
  4551  001D7E                     
  4552                           ;pin_manager.c: 138: if(IOCBFbits.IOCBF4 == 1)
  4553  001D7E  010F               	movlb	15	; () banked
  4554  001D80  A912               	btfss	18,4,b	;volatile
  4555  001D82  EFC5  F00E         	goto	i2u68_41
  4556  001D86  EFC7  F00E         	goto	i2u68_40
  4557  001D8A                     i2u68_41:
  4558  001D8A  EFC9  F00E         	goto	i2l128
  4559  001D8E                     i2u68_40:
  4560  001D8E                     
  4561                           ; BSR set to: 15
  4562                           ;pin_manager.c: 139: {;pin_manager.c: 140: IOCBF4_ISR();
  4563  001D8E  ECF8  F00D         	call	_IOCBF4_ISR	;wreg free
  4564  001D92                     i2l128:
  4565  001D92  0012               	return		;funcret
  4566  001D94                     __end_of_PIN_MANAGER_IOC:
  4567                           	callstack 0
  4568                           
  4569 ;; *************** function _IOCBF4_ISR *****************
  4570 ;; Defined at:
  4571 ;;		line 147 in file "mcc_generated_files/pin_manager.c"
  4572 ;; Parameters:    Size  Location     Type
  4573 ;;		None
  4574 ;; Auto vars:     Size  Location     Type
  4575 ;;		None
  4576 ;; Return value:  Size  Location     Type
  4577 ;;                  1    wreg      void 
  4578 ;; Registers used:
  4579 ;;		wreg, status,2, status,0, pcl, pclath, pclatu, tosl, cstack
  4580 ;; Tracked objects:
  4581 ;;		On entry : 0/0
  4582 ;;		On exit  : 0/0
  4583 ;;		Unchanged: 0/0
  4584 ;; Data sizes:     COMRAM   BANK0   BANK1   BANK2   BANK3   BANK4   BANK5   BANK6   BANK7   BANK8   BANK9  BANK10  BANK1
      +1  BANK12  BANK13  BANK14
  4585 ;;      Params:         0       0       0       0       0       0       0       0       0       0       0       0       
      +0       0       0       0
  4586 ;;      Locals:         0       0       0       0       0       0       0       0       0       0       0       0       
      +0       0       0       0
  4587 ;;      Temps:          0       0       0       0       0       0       0       0       0       0       0       0       
      +0       0       0       0
  4588 ;;      Totals:         0       0       0       0       0       0       0       0       0       0       0       0       
      +0       0       0       0
  4589 ;;Total ram usage:        0 bytes
  4590 ;; Hardware stack levels used: 1
  4591 ;; Hardware stack levels required when called: 1
  4592 ;; This function calls:
  4593 ;;		Absolute function
  4594 ;;		_IOCBF4_DefaultInterruptHandler
  4595 ;; This function is called by:
  4596 ;;		_PIN_MANAGER_IOC
  4597 ;; This function uses a non-reentrant model
  4598 ;;
  4599                           
  4600                           	psect	text45
  4601  001BF0                     __ptext45:
  4602                           	callstack 0
  4603  001BF0                     _IOCBF4_ISR:
  4604                           	callstack 23
  4605  001BF0                     
  4606                           ;pin_manager.c: 152: if(IOCBF4_InterruptHandler)
  4607  001BF0  5046               	movf	_IOCBF4_InterruptHandler^0,w,c
  4608  001BF2  1047               	iorwf	(_IOCBF4_InterruptHandler+1)^0,w,c
  4609  001BF4  B4D8               	btfsc	status,2,c
  4610  001BF6  EFFF  F00D         	goto	i2u13_41
  4611  001BFA  EF01  F00E         	goto	i2u13_40
  4612  001BFE                     i2u13_41:
  4613  001BFE  EF0D  F00E         	goto	i2l1605
  4614  001C02                     i2u13_40:
  4615  001C02                     
  4616                           ;pin_manager.c: 153: {;pin_manager.c: 154: IOCBF4_InterruptHandler();
  4617  001C02  D802               	call	i2u14_48
  4618  001C04  EF0D  F00E         	goto	i2u14_49
  4619  001C08                     i2u14_48:
  4620  001C08  0005               	push	
  4621  001C0A  6EFA               	movwf	pclath,c
  4622  001C0C  5046               	movf	_IOCBF4_InterruptHandler^0,w,c
  4623  001C0E  6EFD               	movwf	tosl,c
  4624  001C10  5047               	movf	(_IOCBF4_InterruptHandler+1)^0,w,c
  4625  001C12  6EFE               	movwf	tosh,c
  4626  001C14  6AFF               	clrf	tosu,c
  4627  001C16  50FA               	movf	pclath,w,c
  4628  001C18  0012               	return		;indir
  4629  001C1A                     i2u14_49:
  4630  001C1A                     i2l1605:
  4631                           
  4632                           ;pin_manager.c: 155: };pin_manager.c: 156: IOCBFbits.IOCBF4 = 0;
  4633  001C1A  010F               	movlb	15	; () banked
  4634  001C1C  9912               	bcf	18,4,b	;volatile
  4635  001C1E                     
  4636                           ; BSR set to: 15
  4637  001C1E  0012               	return		;funcret
  4638  001C20                     __end_of_IOCBF4_ISR:
  4639                           	callstack 0
  4640                           
  4641 ;; *************** function _IOCBF4_DefaultInterruptHandler *****************
  4642 ;; Defined at:
  4643 ;;		line 169 in file "mcc_generated_files/pin_manager.c"
  4644 ;; Parameters:    Size  Location     Type
  4645 ;;		None
  4646 ;; Auto vars:     Size  Location     Type
  4647 ;;		None
  4648 ;; Return value:  Size  Location     Type
  4649 ;;                  1    wreg      void 
  4650 ;; Registers used:
  4651 ;;		None
  4652 ;; Tracked objects:
  4653 ;;		On entry : 0/0
  4654 ;;		On exit  : 0/0
  4655 ;;		Unchanged: 0/0
  4656 ;; Data sizes:     COMRAM   BANK0   BANK1   BANK2   BANK3   BANK4   BANK5   BANK6   BANK7   BANK8   BANK9  BANK10  BANK1
      +1  BANK12  BANK13  BANK14
  4657 ;;      Params:         0       0       0       0       0       0       0       0       0       0       0       0       
      +0       0       0       0
  4658 ;;      Locals:         0       0       0       0       0       0       0       0       0       0       0       0       
      +0       0       0       0
  4659 ;;      Temps:          0       0       0       0       0       0       0       0       0       0       0       0       
      +0       0       0       0
  4660 ;;      Totals:         0       0       0       0       0       0       0       0       0       0       0       0       
      +0       0       0       0
  4661 ;;Total ram usage:        0 bytes
  4662 ;; Hardware stack levels used: 1
  4663 ;; This function calls:
  4664 ;;		Nothing
  4665 ;; This function is called by:
  4666 ;;		_PIN_MANAGER_Initialize
  4667 ;;		_IOCBF4_ISR
  4668 ;; This function uses a non-reentrant model
  4669 ;;
  4670                           
  4671                           	psect	text46
  4672  001E4E                     __ptext46:
  4673                           	callstack 0
  4674  001E4E                     _IOCBF4_DefaultInterruptHandler:
  4675                           	callstack 23
  4676  001E4E  0012               	return		;funcret
  4677  001E50                     __end_of_IOCBF4_DefaultInterruptHandler:
  4678                           	callstack 0
  4679                           
  4680                           	psect	text47
  4681  000000                     __ptext47:
  4682                           	callstack 0
  4683  000000                     
  4684                           	psect	rparam
  4685  0000                     
  4686                           	psect	temp
  4687  00004D                     btemp:
  4688                           	callstack 0
  4689  00004D                     	ds	1
  4690  0000                     int$flags	set	btemp
  4691  0000                     wtemp8	set	btemp+1
  4692  0000                     ttemp5	set	btemp+1
  4693  0000                     ttemp6	set	btemp+4
  4694  0000                     ttemp7	set	btemp+8
  4695                           
  4696                           	psect	idloc
  4697                           
  4698                           ;Config register IDLOC0 @ 0x200000
  4699                           ;	unspecified, using default values
  4700  200000                     	org	2097152
  4701  200000  0FFF               	dw	4095
  4702                           
  4703                           ;Config register IDLOC1 @ 0x200002
  4704                           ;	unspecified, using default values
  4705  200002                     	org	2097154
  4706  200002  0FFF               	dw	4095
  4707                           
  4708                           ;Config register IDLOC2 @ 0x200004
  4709                           ;	unspecified, using default values
  4710  200004                     	org	2097156
  4711  200004  0FFF               	dw	4095
  4712                           
  4713                           ;Config register IDLOC3 @ 0x200006
  4714                           ;	unspecified, using default values
  4715  200006                     	org	2097158
  4716  200006  0FFF               	dw	4095
  4717                           
  4718                           ;Config register IDLOC4 @ 0x200008
  4719                           ;	unspecified, using default values
  4720  200008                     	org	2097160
  4721  200008  0FFF               	dw	4095
  4722                           
  4723                           ;Config register IDLOC5 @ 0x20000A
  4724                           ;	unspecified, using default values
  4725  20000A                     	org	2097162
  4726  20000A  0FFF               	dw	4095
  4727                           
  4728                           ;Config register IDLOC6 @ 0x20000C
  4729                           ;	unspecified, using default values
  4730  20000C                     	org	2097164
  4731  20000C  0FFF               	dw	4095
  4732                           
  4733                           ;Config register IDLOC7 @ 0x20000E
  4734                           ;	unspecified, using default values
  4735  20000E                     	org	2097166
  4736  20000E  0FFF               	dw	4095
  4737                           
  4738                           	psect	config
  4739                           
  4740                           ;Config register CONFIG1L @ 0x300000
  4741                           ;	External Oscillator mode Selection bits
  4742                           ;	FEXTOSC = OFF, Oscillator not enabled
  4743                           ;	Power-up default value for COSC bits
  4744                           ;	RSTOSC = HFINTOSC_1MHZ, HFINTOSC with HFFRQ = 4 MHz and CDIV = 4:1
  4745  300000                     	org	3145728
  4746  300000  EC                 	db	236
  4747                           
  4748                           ;Config register CONFIG1H @ 0x300001
  4749                           ;	Clock Out Enable bit
  4750                           ;	CLKOUTEN = OFF, CLKOUT function is disabled
  4751                           ;	Clock Switch Enable bit
  4752                           ;	CSWEN = ON, Writing to NOSC and NDIV is allowed
  4753                           ;	Fail-Safe Clock Monitor Enable bit
  4754                           ;	FCMEN = ON, Fail-Safe Clock Monitor enabled
  4755  300001                     	org	3145729
  4756  300001  FF                 	db	255
  4757                           
  4758                           ;Config register CONFIG2L @ 0x300002
  4759                           ;	Master Clear Enable bit
  4760                           ;	MCLRE = EXTMCLR, If LVP = 0, MCLR pin is MCLR; If LVP = 1, RE3 pin function is MCLR
  4761                           ;	Power-up Timer Enable bit
  4762                           ;	PWRTE = OFF, Power up timer disabled
  4763                           ;	Low-power BOR enable bit
  4764                           ;	LPBOREN = OFF, ULPBOR disabled
  4765                           ;	Brown-out Reset Enable bits
  4766                           ;	BOREN = SBORDIS, Brown-out Reset enabled , SBOREN bit is ignored
  4767  300002                     	org	3145730
  4768  300002  FF                 	db	255
  4769                           
  4770                           ;Config register CONFIG2H @ 0x300003
  4771                           ;	Brown Out Reset Voltage selection bits
  4772                           ;	BORV = VBOR_2P45, Brown-out Reset Voltage (VBOR) set to 2.45V
  4773                           ;	ZCD Disable bit
  4774                           ;	ZCD = OFF, ZCD disabled. ZCD can be enabled by setting the ZCDSEN bit of ZCDCON
  4775                           ;	PPSLOCK bit One-Way Set Enable bit
  4776                           ;	PPS1WAY = ON, PPSLOCK bit can be cleared and set only once; PPS registers remain locke
      +                          d after one clear/set cycle
  4777                           ;	Stack Full/Underflow Reset Enable bit
  4778                           ;	STVREN = ON, Stack full/underflow will cause Reset
  4779                           ;	Debugger Enable bit
  4780                           ;	DEBUG = OFF, Background debugger disabled
  4781                           ;	Extended Instruction Set Enable bit
  4782                           ;	XINST = OFF, Extended Instruction Set and Indexed Addressing Mode disabled
  4783  300003                     	org	3145731
  4784  300003  FF                 	db	255
  4785                           
  4786                           ;Config register CONFIG3L @ 0x300004
  4787                           ;	WDT Period Select bits
  4788                           ;	WDTCPS = WDTCPS_31, Divider ratio 1:65536; software control of WDTPS
  4789                           ;	WDT operating mode
  4790                           ;	WDTE = OFF, WDT Disabled
  4791  300004                     	org	3145732
  4792  300004  9F                 	db	159
  4793                           
  4794                           ;Config register CONFIG3H @ 0x300005
  4795                           ;	WDT Window Select bits
  4796                           ;	WDTCWS = WDTCWS_7, window always open (100%); software control; keyed access not requi
      +                          red
  4797                           ;	WDT input clock selector
  4798                           ;	WDTCCS = SC, Software Control
  4799  300005                     	org	3145733
  4800  300005  FF                 	db	255
  4801                           
  4802                           ;Config register CONFIG4L @ 0x300006
  4803                           ;	Write Protection Block 0
  4804                           ;	WRT0 = OFF, Block 0 (000800-003FFFh) not write-protected
  4805                           ;	Write Protection Block 1
  4806                           ;	WRT1 = OFF, Block 1 (004000-007FFFh) not write-protected
  4807                           ;	Write Protection Block 2
  4808                           ;	WRT2 = OFF, Block 2 (008000-00BFFFh) not write-protected
  4809                           ;	Write Protection Block 3
  4810                           ;	WRT3 = OFF, Block 3 (00C000-00FFFFh) not write-protected
  4811  300006                     	org	3145734
  4812  300006  FF                 	db	255
  4813                           
  4814                           ;Config register CONFIG4H @ 0x300007
  4815                           ;	Configuration Register Write Protection bit
  4816                           ;	WRTC = OFF, Configuration registers (300000-30000Bh) not write-protected
  4817                           ;	Boot Block Write Protection bit
  4818                           ;	WRTB = OFF, Boot Block (000000-0007FFh) not write-protected
  4819                           ;	Data EEPROM Write Protection bit
  4820                           ;	WRTD = OFF, Data EEPROM not write-protected
  4821                           ;	Scanner Enable bit
  4822                           ;	SCANE = ON, Scanner module is available for use, SCANMD bit can control the module
  4823                           ;	Low Voltage Programming Enable bit
  4824                           ;	LVP = ON, Low voltage programming enabled. MCLR/VPP pin function is MCLR. MCLRE config
      +                          uration bit is ignored
  4825  300007                     	org	3145735
  4826  300007  FF                 	db	255
  4827                           
  4828                           ;Config register CONFIG5L @ 0x300008
  4829                           ;	UserNVM Program Memory Code Protection bit
  4830                           ;	CP = OFF, UserNVM code protection disabled
  4831                           ;	DataNVM Memory Code Protection bit
  4832                           ;	CPD = OFF, DataNVM code protection disabled
  4833  300008                     	org	3145736
  4834  300008  FF                 	db	255
  4835                           
  4836                           ;Config register CONFIG5H @ 0x300009
  4837                           ;	unspecified, using default values
  4838  300009                     	org	3145737
  4839  300009  FF                 	db	255
  4840                           
  4841                           ;Config register CONFIG6L @ 0x30000A
  4842                           ;	Table Read Protection Block 0
  4843                           ;	EBTR0 = OFF, Block 0 (000800-003FFFh) not protected from table reads executed in other
      +                           blocks
  4844                           ;	Table Read Protection Block 1
  4845                           ;	EBTR1 = OFF, Block 1 (004000-007FFFh) not protected from table reads executed in other
      +                           blocks
  4846                           ;	Table Read Protection Block 2
  4847                           ;	EBTR2 = OFF, Block 2 (008000-00BFFFh) not protected from table reads executed in other
      +                           blocks
  4848                           ;	Table Read Protection Block 3
  4849                           ;	EBTR3 = OFF, Block 3 (00C000-00FFFFh) not protected from table reads executed in other
      +                           blocks
  4850  30000A                     	org	3145738
  4851  30000A  FF                 	db	255
  4852                           
  4853                           ;Config register CONFIG6H @ 0x30000B
  4854                           ;	Boot Block Table Read Protection bit
  4855                           ;	EBTRB = OFF, Boot Block (000000-0007FFh) not protected from table reads executed in ot
      +                          her blocks
  4856  30000B                     	org	3145739
  4857  30000B  FF                 	db	255
  4858                           tosu	equ	0xFFF
  4859                           tosh	equ	0xFFE
  4860                           tosl	equ	0xFFD
  4861                           stkptr	equ	0xFFC
  4862                           pclatu	equ	0xFFB
  4863                           pclath	equ	0xFFA
  4864                           pcl	equ	0xFF9
  4865                           tblptru	equ	0xFF8
  4866                           tblptrh	equ	0xFF7
  4867                           tblptrl	equ	0xFF6
  4868                           tablat	equ	0xFF5
  4869                           prodh	equ	0xFF4
  4870                           prodl	equ	0xFF3
  4871                           indf0	equ	0xFEF
  4872                           postinc0	equ	0xFEE
  4873                           postdec0	equ	0xFED
  4874                           preinc0	equ	0xFEC
  4875                           plusw0	equ	0xFEB
  4876                           fsr0h	equ	0xFEA
  4877                           fsr0l	equ	0xFE9
  4878                           wreg	equ	0xFE8
  4879                           indf1	equ	0xFE7
  4880                           postinc1	equ	0xFE6
  4881                           postdec1	equ	0xFE5
  4882                           preinc1	equ	0xFE4
  4883                           plusw1	equ	0xFE3
  4884                           fsr1h	equ	0xFE2
  4885                           fsr1l	equ	0xFE1
  4886                           bsr	equ	0xFE0
  4887                           indf2	equ	0xFDF
  4888                           postinc2	equ	0xFDE
  4889                           postdec2	equ	0xFDD
  4890                           preinc2	equ	0xFDC
  4891                           plusw2	equ	0xFDB
  4892                           fsr2h	equ	0xFDA
  4893                           fsr2l	equ	0xFD9
  4894                           status	equ	0xFD8

Data Sizes:
    Strings     8
    Constant    10
    Data        0
    BSS         5
    Persistent  12
    Stack       0

Auto Spaces:
    Space          Size  Autos    Used
    COMRAM           94     59      76
    BANK0           160      0       0
    BANK1           256      0       0
    BANK2           256      0       0
    BANK3           256      0       0
    BANK4           256      0       0
    BANK5           256      0       0
    BANK6           256      0       0
    BANK7           256      0       0
    BANK8           256      0       0
    BANK9           256      0       0
    BANK10          256      0       0
    BANK11          256      0       0
    BANK12          256      0       0
    BANK13          256      0       0
    BANK14          136      0       0

Pointer List with Targets:

    printf@f	PTR const unsigned char  size(2) Largest target is 4
		 -> STR_2(CODE[4]), STR_1(CODE[4]), 

    printf@ap	PTR void [1] size(2) Largest target is 2
		 -> ?_printf(COMRAM[2]), 

    EUSART1_SetErrorHandler@interruptHandler	PTR FTN()void  size(2) Largest target is 1
		 -> EUSART1_DefaultErrorHandler(), 

    EUSART1_ErrorHandler	PTR FTN()void  size(2) Largest target is 1
		 -> EUSART1_DefaultErrorHandler(), Absolute function(), 

    EUSART1_SetOverrunErrorHandler@interruptHandler	PTR FTN()void  size(2) Largest target is 1
		 -> EUSART1_DefaultOverrunErrorHandler(), 

    EUSART1_OverrunErrorHandler	PTR FTN()void  size(2) Largest target is 1
		 -> EUSART1_DefaultOverrunErrorHandler(), Absolute function(), 

    EUSART1_SetFramingErrorHandler@interruptHandler	PTR FTN()void  size(2) Largest target is 1
		 -> EUSART1_DefaultFramingErrorHandler(), 

    EUSART1_FramingErrorHandler	PTR FTN()void  size(2) Largest target is 1
		 -> EUSART1_DefaultFramingErrorHandler(), Absolute function(), 

    TMR0_SetInterruptHandler@InterruptHandler	PTR FTN()void  size(2) Largest target is 1
		 -> myTimer0ISR(), TMR0_DefaultInterruptHandler(), 

    TMR0_InterruptHandler	PTR FTN()void  size(2) Largest target is 1
		 -> myTimer0ISR(), TMR0_DefaultInterruptHandler(), Absolute function(), 

    IOCBF4_SetInterruptHandler@InterruptHandler	PTR FTN()void  size(2) Largest target is 1
		 -> IOCBF4_DefaultInterruptHandler(), 

    IOCBF4_InterruptHandler	PTR FTN()void  size(2) Largest target is 1
		 -> Absolute function(), IOCBF4_DefaultInterruptHandler(), 


Critical Paths under _main in COMRAM

    _main->_Temperatura
    _Temperatura->___fltol
    ___fltol->___fldiv
    ___fldiv->___xxtofl
    _SYSTEM_Initialize->_TMR0_Initialize
    _TMR0_Initialize->_TMR0_SetInterruptHandler
    _PIN_MANAGER_Initialize->_IOCBF4_SetInterruptHandler
    _EUSART1_Initialize->_EUSART1_SetErrorHandler
    _EUSART1_Initialize->_EUSART1_SetFramingErrorHandler
    _EUSART1_Initialize->_EUSART1_SetOverrunErrorHandler
    _Luminosidade->_printf
    _printf->___lwmod
    _putch->_EUSART1_Write
    ___lwmod->___lwdiv

Critical Paths under _INTERRUPT_InterruptManager in COMRAM

    _myTimer0ISR->i2_Alarme_Luminosidade
    _myTimer0ISR->i2_Alarme_Temperatura

Critical Paths under _main in BANK0

    None.

Critical Paths under _INTERRUPT_InterruptManager in BANK0

    None.

Critical Paths under _main in BANK1

    None.

Critical Paths under _INTERRUPT_InterruptManager in BANK1

    None.

Critical Paths under _main in BANK2

    None.

Critical Paths under _INTERRUPT_InterruptManager in BANK2

    None.

Critical Paths under _main in BANK3

    None.

Critical Paths under _INTERRUPT_InterruptManager in BANK3

    None.

Critical Paths under _main in BANK4

    None.

Critical Paths under _INTERRUPT_InterruptManager in BANK4

    None.

Critical Paths under _main in BANK5

    None.

Critical Paths under _INTERRUPT_InterruptManager in BANK5

    None.

Critical Paths under _main in BANK6

    None.

Critical Paths under _INTERRUPT_InterruptManager in BANK6

    None.

Critical Paths under _main in BANK7

    None.

Critical Paths under _INTERRUPT_InterruptManager in BANK7

    None.

Critical Paths under _main in BANK8

    None.

Critical Paths under _INTERRUPT_InterruptManager in BANK8

    None.

Critical Paths under _main in BANK9

    None.

Critical Paths under _INTERRUPT_InterruptManager in BANK9

    None.

Critical Paths under _main in BANK10

    None.

Critical Paths under _INTERRUPT_InterruptManager in BANK10

    None.

Critical Paths under _main in BANK11

    None.

Critical Paths under _INTERRUPT_InterruptManager in BANK11

    None.

Critical Paths under _main in BANK12

    None.

Critical Paths under _INTERRUPT_InterruptManager in BANK12

    None.

Critical Paths under _main in BANK13

    None.

Critical Paths under _INTERRUPT_InterruptManager in BANK13

    None.

Critical Paths under _main in BANK14

    None.

Critical Paths under _INTERRUPT_InterruptManager in BANK14

    None.

Call Graph Tables:

 ---------------------------------------------------------------------------------
 (Depth) Function   	        Calls       Base Space   Used Autos Params    Refs
 ---------------------------------------------------------------------------------
 (0) _main                                                 2     2      0    5508
                                             57 COMRAM     2     2      0
                    _ADCC_Initialize
                _Alarme_Luminosidade
                 _Alarme_Temperatura
                       _EUSART1_Read
                      _EUSART1_Write
                _EUSART1_is_rx_ready
                       _Luminosidade
                  _SYSTEM_Initialize
           _TMR0_SetInterruptHandler
                        _Temperatura
 ---------------------------------------------------------------------------------
 (1) _Temperatura                                          2     2      0    3499
                                             55 COMRAM     2     2      0
      _ADCC_DischargeSampleCapacitor
           _ADCC_GetConversionResult
              _ADCC_IsConversionDone
               _ADCC_StartConversion
                 _PWM1_LoadDutyValue
                            ___fldiv
                            ___fltol
                           ___xxtofl
                             _printf
 ---------------------------------------------------------------------------------
 (2) ___xxtofl                                            14    10      4     398
                                              6 COMRAM    14    10      4
 ---------------------------------------------------------------------------------
 (2) ___fltol                                             10     6      4     305
                                             45 COMRAM    10     6      4
                            ___fldiv (ARG)
                           ___xxtofl (ARG)
 ---------------------------------------------------------------------------------
 (2) ___fldiv                                             25    17      8    1399
                                             20 COMRAM    25    17      8
                           ___xxtofl (ARG)
 ---------------------------------------------------------------------------------
 (2) _PWM1_LoadDutyValue                                   2     0      2     166
                                              6 COMRAM     2     0      2
 ---------------------------------------------------------------------------------
 (1) _SYSTEM_Initialize                                    0     0      0     566
                    _ADCC_Initialize
                    _DAC1_Initialize
                 _EUSART1_Initialize
               _INTERRUPT_Initialize
              _OSCILLATOR_Initialize
             _PIN_MANAGER_Initialize
                     _PMD_Initialize
                    _PWM1_Initialize
                    _PWM2_Initialize
                    _TMR0_Initialize
                    _TMR2_Initialize
 ---------------------------------------------------------------------------------
 (2) _TMR2_Initialize                                      0     0      0       0
 ---------------------------------------------------------------------------------
 (2) _TMR0_Initialize                                      2     2      0     174
                                              8 COMRAM     2     2      0
           _TMR0_SetInterruptHandler
 ---------------------------------------------------------------------------------
 (1) _TMR0_SetInterruptHandler                             2     0      2     174
                                              6 COMRAM     2     0      2
 ---------------------------------------------------------------------------------
 (2) _PWM2_Initialize                                      0     0      0       0
 ---------------------------------------------------------------------------------
 (2) _PWM1_Initialize                                      0     0      0       0
 ---------------------------------------------------------------------------------
 (2) _PMD_Initialize                                       0     0      0       0
 ---------------------------------------------------------------------------------
 (2) _PIN_MANAGER_Initialize                               0     0      0      98
         _IOCBF4_SetInterruptHandler
 ---------------------------------------------------------------------------------
 (3) _IOCBF4_SetInterruptHandler                           2     0      2      98
                                              6 COMRAM     2     0      2
 ---------------------------------------------------------------------------------
 (2) _OSCILLATOR_Initialize                                0     0      0       0
 ---------------------------------------------------------------------------------
 (2) _INTERRUPT_Initialize                                 0     0      0       0
 ---------------------------------------------------------------------------------
 (2) _EUSART1_Initialize                                   0     0      0     294
            _EUSART1_SetErrorHandler
     _EUSART1_SetFramingErrorHandler
     _EUSART1_SetOverrunErrorHandler
 ---------------------------------------------------------------------------------
 (3) _EUSART1_SetOverrunErrorHandler                       2     0      2      98
                                              6 COMRAM     2     0      2
 ---------------------------------------------------------------------------------
 (3) _EUSART1_SetFramingErrorHandler                       2     0      2      98
                                              6 COMRAM     2     0      2
 ---------------------------------------------------------------------------------
 (3) _EUSART1_SetErrorHandler                              2     0      2      98
                                              6 COMRAM     2     0      2
 ---------------------------------------------------------------------------------
 (2) _DAC1_Initialize                                      0     0      0       0
 ---------------------------------------------------------------------------------
 (2) _ADCC_Initialize                                      0     0      0       0
 ---------------------------------------------------------------------------------
 (1) _Luminosidade                                         2     2      0    1231
                                             30 COMRAM     2     2      0
      _ADCC_DischargeSampleCapacitor
           _ADCC_GetConversionResult
              _ADCC_IsConversionDone
               _ADCC_StartConversion
                             _printf
 ---------------------------------------------------------------------------------
 (2) _printf                                              21    17      4    1193
                                             18 COMRAM    12     8      4
                            ___lwdiv
                            ___lwmod
                              _putch
 ---------------------------------------------------------------------------------
 (3) _putch                                                1     1      0      30
                                              7 COMRAM     1     1      0
                      _EUSART1_Write
 ---------------------------------------------------------------------------------
 (4) _EUSART1_Write                                        1     1      0      15
                                              6 COMRAM     1     1      0
 ---------------------------------------------------------------------------------
 (3) ___lwmod                                              5     1      4     311
                                             13 COMRAM     5     1      4
                            ___lwdiv (ARG)
 ---------------------------------------------------------------------------------
 (3) ___lwdiv                                              7     3      4     314
                                              6 COMRAM     7     3      4
 ---------------------------------------------------------------------------------
 (2) _ADCC_StartConversion                                 1     1      0      15
                                              6 COMRAM     1     1      0
 ---------------------------------------------------------------------------------
 (2) _ADCC_IsConversionDone                                0     0      0       0
 ---------------------------------------------------------------------------------
 (2) _ADCC_GetConversionResult                             4     2      2       0
                                              6 COMRAM     4     2      2
 ---------------------------------------------------------------------------------
 (2) _ADCC_DischargeSampleCapacitor                        0     0      0       0
 ---------------------------------------------------------------------------------
 (1) _EUSART1_is_rx_ready                                  0     0      0       0
 ---------------------------------------------------------------------------------
 (1) _EUSART1_Read                                         0     0      0       0
 ---------------------------------------------------------------------------------
 (1) _Alarme_Temperatura                                   4     2      2       0
                                              6 COMRAM     4     2      2
 ---------------------------------------------------------------------------------
 (1) _Alarme_Luminosidade                                  4     2      2       0
                                              6 COMRAM     4     2      2
 ---------------------------------------------------------------------------------
 Estimated maximum stack depth 4
 ---------------------------------------------------------------------------------
 (Depth) Function   	        Calls       Base Space   Used Autos Params    Refs
 ---------------------------------------------------------------------------------
 (5) _INTERRUPT_InterruptManager                           2     2      0       2
                                              4 COMRAM     2     2      0
                    _PIN_MANAGER_IOC
                           _TMR0_ISR
 ---------------------------------------------------------------------------------
 (6) _TMR0_ISR                                             0     0      0       2
                      _TMR0_CallBack
 ---------------------------------------------------------------------------------
 (7) _TMR0_CallBack                                        0     0      0       2
                   Absolute function *
       _TMR0_DefaultInterruptHandler *
                        _myTimer0ISR *
 ---------------------------------------------------------------------------------
 (8) _myTimer0ISR                                          4     4      0       2
              i2_Alarme_Luminosidade
               i2_Alarme_Temperatura
 ---------------------------------------------------------------------------------
 (9) i2_Alarme_Temperatura                                 4     2      2       0
                                              0 COMRAM     4     2      2
 ---------------------------------------------------------------------------------
 (9) i2_Alarme_Luminosidade                                4     2      2       0
                                              0 COMRAM     4     2      2
 ---------------------------------------------------------------------------------
 (8) _TMR0_DefaultInterruptHandler                         0     0      0       0
 ---------------------------------------------------------------------------------
 (6) _PIN_MANAGER_IOC                                      0     0      0       0
                         _IOCBF4_ISR
 ---------------------------------------------------------------------------------
 (7) _IOCBF4_ISR                                           0     0      0       0
                   Absolute function *
     _IOCBF4_DefaultInterruptHandler *
 ---------------------------------------------------------------------------------
 (8) _IOCBF4_DefaultInterruptHandler                       0     0      0       0
 ---------------------------------------------------------------------------------
 (8) Absolute function(Fake)                               0     0      0       0
 ---------------------------------------------------------------------------------
 Estimated maximum stack depth 9
 ---------------------------------------------------------------------------------

 Call Graph Graphs:

 _main (ROOT)
   _ADCC_Initialize
   _Alarme_Luminosidade
   _Alarme_Temperatura
   _EUSART1_Read
   _EUSART1_Write
   _EUSART1_is_rx_ready
   _Luminosidade
     _ADCC_DischargeSampleCapacitor
     _ADCC_GetConversionResult
     _ADCC_IsConversionDone
     _ADCC_StartConversion
     _printf
       ___lwdiv
       ___lwmod
         ___lwdiv (ARG)
       _putch
         _EUSART1_Write
   _SYSTEM_Initialize
     _ADCC_Initialize
     _DAC1_Initialize
     _EUSART1_Initialize
       _EUSART1_SetErrorHandler
       _EUSART1_SetFramingErrorHandler
       _EUSART1_SetOverrunErrorHandler
     _INTERRUPT_Initialize
     _OSCILLATOR_Initialize
     _PIN_MANAGER_Initialize
       _IOCBF4_SetInterruptHandler
     _PMD_Initialize
     _PWM1_Initialize
     _PWM2_Initialize
     _TMR0_Initialize
       _TMR0_SetInterruptHandler
     _TMR2_Initialize
   _TMR0_SetInterruptHandler
   _Temperatura
     _ADCC_DischargeSampleCapacitor
     _ADCC_GetConversionResult
     _ADCC_IsConversionDone
     _ADCC_StartConversion
     _PWM1_LoadDutyValue
     ___fldiv
       ___xxtofl (ARG)
     ___fltol
       ___fldiv (ARG)
       ___xxtofl (ARG)
     ___xxtofl
     _printf

 _INTERRUPT_InterruptManager (ROOT)
   _PIN_MANAGER_IOC
     _IOCBF4_ISR
       Absolute function(Fake) *
       _IOCBF4_DefaultInterruptHandler *
   _TMR0_ISR
     _TMR0_CallBack
       Absolute function(Fake) *
       _TMR0_DefaultInterruptHandler *
       _myTimer0ISR *
         i2_Alarme_Luminosidade
         i2_Alarme_Temperatura

 Address spaces:
Name               Size   Autos  Total    Cost      Usage
BIGRAM             E87      0       0      61        0.0%
EEDATA             400      0       0       0        0.0%
BITBANK13          100      0       0      30        0.0%
BANK13             100      0       0      31        0.0%
BITBANK12          100      0       0      28        0.0%
BANK12             100      0       0      29        0.0%
BITBANK11          100      0       0      26        0.0%
BANK11             100      0       0      27        0.0%
BITBANK10          100      0       0      24        0.0%
BANK10             100      0       0      25        0.0%
BITBANK9           100      0       0      22        0.0%
BANK9              100      0       0      23        0.0%
BITBANK8           100      0       0      20        0.0%
BANK8              100      0       0      21        0.0%
BITBANK7           100      0       0      18        0.0%
BANK7              100      0       0      19        0.0%
BITBANK6           100      0       0      16        0.0%
BANK6              100      0       0      17        0.0%
BITBANK5           100      0       0      14        0.0%
BANK5              100      0       0      15        0.0%
BITBANK4           100      0       0      12        0.0%
BANK4              100      0       0      13        0.0%
BITBANK3           100      0       0      10        0.0%
BANK3              100      0       0      11        0.0%
BITBANK2           100      0       0       8        0.0%
BANK2              100      0       0       9        0.0%
BITBANK1           100      0       0       6        0.0%
BANK1              100      0       0       7        0.0%
BITBANK0            A0      0       0       4        0.0%
BANK0               A0      0       0       5        0.0%
BITBANK14           88      0       0      32        0.0%
BANK14              88      0       0      33        0.0%
BITCOMRAM           5E      0       0       0        0.0%
COMRAM              5E     3B      4C       1       80.9%
BITBIGSFRlll        28      0       0      59        0.0%
BITBIGSFRhhhhhl     21      0       0      44        0.0%
BITBIGSFRhhhhhh     1B      0       0      35        0.0%
BITBIGSFRhhhhhh     12      0       0      36        0.0%
BITBIGSFRhhhhhl      F      0       0      43        0.0%
BITBIGSFRhhhhhl      F      0       0      49        0.0%
BITBIGSFRhhhhhh      E      0       0      41        0.0%
BITBIGSFRhhhhhh      D      0       0      34        0.0%
BITBIGSFRhhhhhl      D      0       0      51        0.0%
BITBIGSFRhhhhhh      C      0       0      37        0.0%
BITBIGSFRllh         C      0       0      58        0.0%
BITBIGSFRlhhh        9      0       0      55        0.0%
BITBIGSFRhhhhhl      8      0       0      50        0.0%
BITBIGSFRhhhhhl      8      0       0      47        0.0%
BITBIGSFRlhl         7      0       0      57        0.0%
BITBIGSFRhhhhhh      6      0       0      40        0.0%
BITBIGSFRhhhhhl      5      0       0      45        0.0%
BITBIGSFRhhhhhl      3      0       0      48        0.0%
BITBIGSFRlhhl        2      0       0      56        0.0%
BITBIGSFRhhhhhl      2      0       0      46        0.0%
BITBIGSFRhhhhhh      2      0       0      42        0.0%
BITBIGSFRhhhhl       2      0       0      52        0.0%
BITBIGSFRhhhhhh      1      0       0      39        0.0%
BITBIGSFRhhhhhh      1      0       0      38        0.0%
BITBIGSFRhhl         1      0       0      53        0.0%
BITBIGSFRhl          1      0       0      54        0.0%
BIGSFR               0      0       0     200        0.0%
BITSFR_2             0      0       0     200        0.0%
SFR_2                0      0       0     200        0.0%
BITSFR_1             0      0       0     200        0.0%
SFR_1                0      0       0     200        0.0%
BITSFR               0      0       0     200        0.0%
SFR                  0      0       0     200        0.0%
STACK                0      0       0       2        0.0%
NULL                 0      0       0       0        0.0%
ABS                  0      0      4C      60        0.0%
DATA                 0      0      4C       3        0.0%
CODE                 0      0       0       0        0.0%


Microchip Technology PIC18 Macro Assembler V2.36 build 20220127204148 
Symbol Table                                                                                   Thu Jul 21 22:02:24 2022

                                  ___fldiv@aexp 002D                                    ___fldiv@bexp 002C  
                                  ___fldiv@sign 0025                                              l50 1D22  
                                            l53 1D0A                                              l47 1C7A  
                                            u10 1D36                                              u11 1D32  
                               _DAC1_Initialize 1DE2                                             l211 1B2E  
                                           l220 1DCE                                             l124 18F6  
                                           l214 1DF8                                             l135 1E0C  
                                           l217 1DBA                                             l235 1E46  
                                           l332 1BEE                                             l373 1D66  
                                           l357 1E02                                             l429 1CEE  
                                           l542 1D7C                                             l534 1BB4  
                                           l551 1CA8                                             l640 1B76  
                                           l561 1D3A                                             l650 17EE  
                                           l482 1E4A                                             l394 1D50  
                                           l378 1C4C                                             l634 1790  
                                           l555 1CD0                                             l299 1DEC  
                                           l644 17CA                                             l661 19F2  
                                           l709 15E6                                             l654 1808  
                                           l558 1D26                                             l582 1E16  
                                           l647 17D0                                             l567 1E34  
                                           l664 1A10                                             l585 1E2A  
                                           l658 19EC                                             l579 1E20  
                                           l668 1A2A                                             u150 1DB8  
                                           u151 1DB2                                             u160 1DBA  
                                           _PR2 000FBC                                             u700 1CB8  
                                           u701 1CB4                                             u710 1CCA  
                                           u711 1CC6                                             u690 1D7A  
                                           u691 1D74                                             u950 1912  
                                           u951 190E                                             u696 1D7C  
                                           u960 1930                                             u961 192C  
                                           u970 194C                                             u971 1948  
                                           u980 197E                                             u981 197A  
                                           u990 199C                                             u991 1998  
                               _TMR2_Initialize 1CD2                                             tosl 000FFD  
                                           wreg 000FE8              __end_of_IOCBF4_SetInterruptHandler 1E0E  
                    _IOCBF4_SetInterruptHandler 1E04                                    ___fltol@exp1 0037  
                                          l1001 16EC                                            l1201 19C6  
                                          l1208 19CE                                            l2301 18D4  
                                          l1191 1962                                            l2311 18EA  
                                          l2303 18D6                                            l2401 155A  
                                          l2241 1E18                                            l2313 18EE  
                                          l2305 18D8                                            l2321 1BD8  
                                          l1282 12AC                                            l1362 139C  
                                          l1611 1DF6                                            l2251 1900  
                                          l2403 1562                                            l2243 1E0E  
                                          l2331 1B8C                                            l1531 1E48  
                                          l2315 18F2                                            l2307 18DA  
                                          l2323 1BDC                                            l2411 0F14  
                                          l1355 1304                                            l1284 110C  
                                          l1621 1E40                                            l1613 1DA8  
                                          l2261 1936                                            l2253 1912  
                                          l2405 15AA                                            l2245 1E22  
                                          l2333 1B98                                            l2237 1E04  
                                          l2309 18E6                                            l1533 1CF0  
                                          l2325 1BDE                                            l2317 1BB6  
                                          l1293 1152                                            l2501 1142  
                                          l2421 0F50                                            l2413 0F20  
                                          l1198 196A                                            l1358 1460  
                                          l1607 1DF0                                            l2263 194C  
                                          l2255 191A                                            l2271 196C  
                                          l2407 15B0                                            l2335 1BA4  
                                          l2239 1DFA                                            l2327 1BEA  
                                          l2319 1BC2                                            l2351 1C36  
                                          l2511 1182                                            l1295 11CA  
                                          l2503 1150                                            l1287 10D0  
                                          l2431 0F80                                            l2423 0F60  
                                          l2415 0F2E                                            l1296 11B8  
                                          l1609 1DF4                                            l2265 1954  
                                          l2257 1922                                            l2249 18F8  
                                          l2281 19B2                                            l2273 197E  
                                          l1457 1D26                                            l2409 15C2  
                                          l2361 1462                                            l2337 1BB0  
                                          l2329 1B78                                            l2353 1C44  
                                          l2521 11F4                                            l2513 11B0  
                                          l2505 1162                                            l2441 0FB6  
                                          l2433 0F86                                            l2425 0F62  
                                          l2417 0F30                                            l1369 13F8  
                                          l2601 132A                                            l2339 1DBC  
                                          l2267 1956                                            l2259 1930  
                                          l2283 19BA                                            l2275 1986  
                                          l1459 1D36                                            l2371 148E  
                                          l2363 146E                                            l1571 1AE0  
                                          l2291 18C6                                            l2355 1C48  
                                          l2347 1C20                                            l2531 126C  
                                          l2523 121E                                            l2507 1170  
                                          l2451 0FF6                                            l2443 0FC6  
                                          l2435 0F94                                            l2419 0F40  
                                          l2427 0F6A                                            l2611 1384  
               ??_ADCC_DischargeSampleCapacitor 0007                                            l2269 195C  
                                          l2285 19C0                                            l2277 198E  
                                          l2381 14EA                                            l2373 14C0  
                                          l2365 1480                                            l2701 1B34  
                                          l1573 1DE2                                            l1565 1D0C  
                                          l2293 18C8                                            l2349 1C28  
                                          l2541 12A2                                            l2533 1288  
                                          l2517 11DA                                            l2525 1222  
                                          l2509 1174                                            l2453 1006  
                                          l2461 1026                                            l2445 0FC8  
                                          l2437 0F96                                            l2429 0F7A  
                                          l2621 13E8                                            l2613 1386  
                                          l2605 133E                                            l2279 199C  
                                          l2383 14F2                                            l2375 14D0  
                                          l2367 148A                                            l2703 1B3A  
                                          l2295 18CA                                            l2287 1882  
                                          l1567 1D52                                            l1575 1CD2  
                                          l2535 128C                                            l2527 123C  
                                          l2519 11E6                                            l2471 1064  
                                          l2463 1036                                            l2455 100E  
                                          l2439 0FA6                                            l2447 0FD0  
                                          l2551 15FE                                            l2631 1440  
                                          l2623 1406                                            l2615 1392  
                                          l2607 1346                                            l1489 1E2E  
                                          l2393 152A                                            l2377 14D8  
                                          l2705 1B4E                                            l2297 18CC  
                                          l2289 18C4                                            l1569 1D3C  
                                          l1577 1CE6                                            l2641 1C52  
                                          l2537 129A                                            l2529 1252  
                                          l2481 10AC                                            l2473 1074  
                                          l2465 1036                                            l2457 1012  
                                          l2449 0FE0                                            l2561 164E  
                                          l2633 144E                                            l2625 1408  
                                          l2617 13CE                                            l2609 1352  
                                          l2721 1A88                                            l2395 152C  
                                          l2379 14E6                                            l2707 1B5A  
                                          l2299 18CE                                            l2651 1C66  
                                          l2643 1C56                                            l2539 12A0  
                                          l2491 10FA                                            l2483 10C0  
                                          l2475 1084                                            l2571 1678  
                                          l2563 1652                                            l2555 1612  
                                          l2635 1450                                            l2627 140C  
                                          l2619 13DA                                            l2731 1AA0  
                                          l2723 1A8C                                            l2397 153E  
                                          l2389 14F6                                            l2709 1B62  
                                          l2653 1C6A                                            l2645 1C5A  
                                          l2493 110A                                            l2485 10CE  
                                          l2477 1094                                            l2469 104A  
                                          l2581 16A0                                            l2573 1682  
                                          l2565 1660                                            l2557 163C  
                                          l2549 15E8                                            l2629 1430  
                                          l2741 1ABE                                            l2733 1AA4  
                                          l2725 1A90                            _ADCC_StartConversion 1DEE  
                                          l2671 17AE                                            l2399 1554  
                                          l2655 1C6E                                            l2647 1C5E  
                                          l2639 1C4E                                            l2495 111C  
                                          l2487 10DA                                            l2479 109C  
                                          l2583 16AC                                            l2575 168C  
                                          l2559 163E                                            l2743 1AC4  
                                          l2735 1AA8                                            l2727 1A9C  
                                          l2681 19F4                                            l2673 17D2  
                                          l2657 1C72                                            l2649 1C62  
                                          l2497 1132                                            l2489 10F8  
                                          l2585 16BC                                            l2593 12B0  
                                          l2737 1AAC                                            l2729 1A9E  
                                          l2683 1A12                                            l2675 17F0  
                                          l1971 1CA8                                            l2659 1C76  
                                          l2499 1138                                            l2587 16CC  
                                          l2595 12C0                                            l2691 16F8  
                                          l2739 1AB4                                            l2685 1A28  
                                          l2677 1806                                            l2669 1792  
                                          l1973 1CB8                                            l2589 16DC  
                                          l2597 12CE                                            l2693 1704  
                                          l2679 19D0                                            l1975 1CBC  
                                          l1967 1D68                                            l2599 1314  
                                          l2695 1718                                            l2687 16EE  
                                          l1977 1CCA                                            l2697 177C  
                                          l2689 16F2                                            l1979 1CCE  
                                          l2699 1B30                                            STR_1 0F0B  
                                          STR_2 0F0F                         __end_of_PWM1_Initialize 1D68  
                                          u1000 19B2                                            u1001 19AE  
                                          u1100 15C2                                            u1101 15BE  
                                          u1110 15E6                                            u1030 1C36  
                                          u1111 15E2                                            u1031 1C32  
                                          u1200 10AC                                            u1120 0F2E  
                                          u1201 10A8                                            u1121 0F2A  
                                          u1050 1480                                            u1210 10CE  
                                          u1130 0F40                                            u1051 147C  
                                          u1211 10CA                                            u1131 0F3C  
                                          u1060 14E6                                            u1300 11DA  
                                          u1220 10F8                                            u1140 0F50  
                                          u1061 14E2                                            u1045 1C38  
                                          u1301 11D6                                            u1221 10F4  
                                          u1141 0F4C                                            u1070 1526  
                                          u1310 11F4                                            u1230 111C  
                                          u1150 0F94                                            u1071 1522  
                                          u1311 11F0                                            u1231 1118  
                                          u1151 0F90                                            u1080 153E  
                                          u1320 123C                                            u1240 1132  
                                          u1160 0FA6                                            u1400 16BC  
                                          u1081 153A                                            u1321 1238  
                                          u1241 112E                                            u1161 0FA2  
                                          u1401 16B8                                            u1090 1554  
                                          u1330 126C                                            u1250 1150  
                                          u1170 0FB6                                            u1410 16CC  
                                          u1091 1550                                            u1331 1268  
                                          u1251 114C                                            u1171 0FB2  
                                          u1411 16C8                                            u1340 129A  
                                          u1260 1170                                            u1180 0FF6  
                                          u1500 1440                                            u1420 12C0  
                                          u1341 1296                                            u1261 116C  
                                          u1181 0FF2                                            u1501 143C  
                                          u1421 12BC                                            _LATA 000F83  
                                          u1270 1182                                            u1190 1036  
                                          u1350 15FE                                            u1510 144E  
                                          u1430 12CE                                            _LATB 000F84  
                                          u1271 117E                                            u1191 1032  
                                          u1351 15FA                                            u1511 144A  
                                          u1431 12CA                                            _LATC 000F85  
                                          u1520 17AE                                            u1280 11B0  
                                          u1360 1632                                            u1440 132A  
                                          u1521 17AA                                            u1281 11AC  
                                          u1441 1326                                            u1530 17CA  
                                          u1290 11C6                                            u1370 1660  
                                          u1450 1380                                            u1531 17C6  
                                          u1291 11C2                                            u1371 165C  
                                          u1451 137C                                            u1540 17EE  
                                          u1380 1674                                            u1460 13CA  
                                          u1541 17EA                                            u1381 1670  
                                          u1365 1628                                            u1461 13C6  
                                          u1550 19EC                                            u1390 169C  
                                          u1470 13E8                                            u1630 1AD8  
                                          u1551 19E8                                            u1391 1698  
                                          u1471 13E4                                            u1631 1AD4  
                                          u1560 1A10                                            u1480 13F8  
                                          u1561 1A0C                                            u1481 13F4  
                                          u1490 1406                                            u1570 1718  
                                          _T2PR 000FBC                                            u1491 1402  
                                          u1571 1714                                            u1580 1B4E  
                                          u1581 1B4A                                            u1647 17FA  
                                          u1657 1A1C                                            _PMD0 000EE1  
                                          _PMD1 000EE2                                            _PMD2 000EE3  
                                          _PMD3 000EE4                                            _PMD4 000EE5  
                                          _PMD5 000EE6                                            _TMR2 000FBB  
                                          _WPUA 000F10                                            _WPUB 000F18  
                                          _WPUC 000F20                                            _WPUE 000F2D  
                                 _EUSART1_Write 1D24                                            _main 1A88  
                                 ?_EUSART1_Read 0001                                            fsr2h 000FDA  
                                          fsr2l 000FD9                                            btemp 004D  
                                          prodh 000FF4                                            prodl 000FF3  
                                          start 006A                                 ___fldiv@new_exp 0026  
                                  ___param_bank 000000                         ??i2_Alarme_Luminosidade 0003  
                       __end_of_PWM2_Initialize 1D52                         __end_of_TMR0_Initialize 1BF0  
                ??_TMR0_DefaultInterruptHandler 0001                   __end_of_OSCILLATOR_Initialize 1D24  
                                 ___fltol@sign1 0036                                           _ADACQ 000F5C  
                                         _ADCAP 000F5D                                           _ADACT 000F56  
                                         ?_main 0001                                           _ADCLK 000F57  
                                         _ADCNT 000F67                                           _ADPCH 000F5F  
                               __end_of___fldiv 12AE                                           _ADREF 000F58  
                                         _ADPRE 000F5E                                           _ADRPT 000F66  
                               __end_of___fltol 16EE                                           _T2CON 000FBD  
                                         _T2HLT 000FBE                                 __end_of___lwdiv 196C  
                                         _T2TMR 000FBB                                           _T2RST 000FC0  
                               __end_of___lwmod 19D0                                           i2l132 1C1E  
                                         i2l128 1D92                                           i2l138 1E4E  
                                         i2l350 1DE0                                           i2l360 1E4C  
                                         i2l354 1CA6                                           i2l624 1E3E  
                                         i2l650 1866                                           i2l491 0058  
                                         i2l644 1842                                           i2l661 1A4E  
                                         i2l654 1880                                           i2l647 1848  
                                         i2l487 0038                                           i2l664 1A6C  
                                         i2l658 1A48                                           i2l668 1A86  
                                         _OSCEN 000EDC                                           _TMR0H 000FD4  
                                         _TMR0L 000FD3                                           _TRISA 000F88  
                                         _TRISB 000F89                                           _TRISC 000F8A  
                     ?_TMR0_SetInterruptHandler 0007                         ??_ADCC_IsConversionDone 0007  
                              __end_of_TMR0_ISR 1DE2                                  fp__myTimer0ISR 0000  
                       __end_of_PIN_MANAGER_IOC 1D94                                 __end_of_dpowers 0F0B  
                         ?_ADCC_StartConversion 0001                                           _putch 1E2C  
                                ?_EUSART1_Write 0001                                           pclath 000FFA  
                                         pclatu 000FFB                                           tablat 000FF5  
                                ??_EUSART1_Read 0007                                           ttemp5 004E  
                                         ttemp6 0051                                           ttemp7 0055  
                                         status 000FD8                                           wtemp8 004E  
            _EUSART1_DefaultFramingErrorHandler 000000                                 __initialization 1D94  
                    __end_of_EUSART1_Initialize 1BB6                                    __end_of_main 1AE0  
                       __end_of_DAC1_Initialize 1DEE                                    ?_myTimer0ISR 0001  
                       __end_of_TMR2_Initialize 1CF0                     ?_INTERRUPT_InterruptManager 0001  
                                        ??_main 003A                                   __activetblptr 000003  
                               Luminosidade@luz 001F                                          _ADACCH 000F71  
                                        _ADACCL 000F70                                          _ADCON0 000F60  
                                        _ADCON1 000F59                                          _ADCON2 000F5A  
                                        _ADCON3 000F5B                                          _ADERRH 000F6F  
                                        _ADERRL 000F6E                                          _ADLTHH 000F6B  
                                        _ADLTHL 000F6A                                          _ADRESH 000F64  
                                        _ADRESL 000F63                                          _CCPR1H 000FAB  
                                        _CCPR2H 000FA7                                          _CCPR1L 000FAA  
                                        _CCPR2L 000FA6                                          _ADSTAT 000F65  
                                        _ADUTHH 000F6D                                          _ADUTHL 000F6C  
                                        _ANSELA 000F11                                          ?_putch 0001  
                                        _ANSELB 000F19                                          _ANSELC 000F21  
                                        _T0CON0 000FD5                                          _T0CON1 000FD6  
                                        _RC1REG 000F99                                          _RC1STA 000F9D  
                                        _RB5PPS 000EF4                                ?_PWM1_Initialize 0001  
                                        _ODCONA 000F0F                                          _ODCONB 000F17  
                                        _RC6PPS 000EFD                                          _ODCONC 000F1F  
                                        i2l2221 1826                                          i2l2231 1A50  
                                        i2l2223 184A                                          i2l1601 1BF0  
                                        i2l2233 1A6E                                          i2l2225 1868  
                                        i2l1603 1C02                                          i2l2235 1A84  
                                        i2l2227 187E                                          i2l2219 180A  
                                        i2l1605 1C1A                                          i2l2229 1A2C  
                                        i2l2247 1E36                                          i2l2343 1C7C  
                                        i2l2345 1C8E                                          i2l2711 0012  
                                        i2l2713 0022                                          i2l2715 0030  
                                        i2l1941 1D7E                                          i2l2661 1DD0  
                                        i2l2717 0046                                          i2l1943 1D8E  
                                        i2l2663 1DD4                                          i2l2719 0054  
                  __end_ofi2_Alarme_Temperatura 1882                                          i2l2665 1DD8  
                                        i2l2667 1DDC                                          _INLVLA 000F0D  
                                        _INLVLB 000F15                                          _INLVLC 000F1D  
                                        _INLVLE 000F2A                                          _OSCFRQ 000EDE  
                                        _RX1PPS 000EB5                                          _TX1REG 000F9A  
                                        _TX1STA 000F9E                                __end_of___xxtofl 1462  
         __end_of_ADCC_DischargeSampleCapacitor 1E48                   _ADCC_DischargeSampleCapacitor 1E40  
                    ??_ADCC_GetConversionResult 0009                                       ??___fldiv 001D  
                                     ??___fltol 0032                                       ??___lwdiv 000B  
                                     ??___lwmod 0012                                   ??_Temperatura 0038  
                      ?_EUSART1_SetErrorHandler 0007                                ?_TMR0_Initialize 0001  
                              ?_PWM2_Initialize 0001                                          isa$std 000001  
                                        _printf 1462                ??_EUSART1_SetOverrunErrorHandler 0009  
               ?_EUSART1_SetOverrunErrorHandler 0007                                          main@ch 003B  
                               _ADCC_Initialize 1AE0                                  _PMD_Initialize 1CF0  
                                  __mediumconst 0000                                          tblptrh 000FF7  
                                        tblptrl 000FF6                                          tblptru 000FF8  
                        ??_ADCC_StartConversion 0007                           __end_of_TMR0_CallBack 1CA8  
                               ??_EUSART1_Write 0007        TMR0_SetInterruptHandler@InterruptHandler 0007  
    IOCBF4_SetInterruptHandler@InterruptHandler 0007                                ?_PIN_MANAGER_IOC 0001  
                                  ??_IOCBF4_ISR 0001                                    ___xxtofl@arg 0011  
                                  ___xxtofl@exp 0010                               _SYSTEM_Initialize 1C4E  
                                  ___xxtofl@val 0007                                      __accesstop 0060  
                       __end_of__initialization 1D9E                              ?_SYSTEM_Initialize 0001  
                                 ___rparam_used 000001                                      ___fltol@f1 002E  
                   PWM1_LoadDutyValue@dutyValue 0007                                  __pcstackCOMRAM 0001  
                           ??_SYSTEM_Initialize 000B                                ?_DAC1_Initialize 0001  
                                     ?_TMR0_ISR 0001                                   __end_of_putch 1E36  
                            _PWM1_LoadDutyValue 1C20                                ?_TMR2_Initialize 0001  
                        __end_of_PMD_Initialize 1D0C                              __end_of_IOCBF4_ISR 1C20  
                          __end_of_EUSART1_Read 1CD2                             ?_PWM1_LoadDutyValue 0007  
                           __end_of_Temperatura 1792                     ?_IOCBF4_SetInterruptHandler 0007  
                   ADCC_StartConversion@channel 0007                       __end_of_SYSTEM_Initialize 1C7C  
                   __end_of_Alarme_Luminosidade 1A2C                                         ??_putch 0008  
                                    __pnvCOMRAM 003C                            ??_PWM1_LoadDutyValue 0009  
               __end_of_EUSART1_SetErrorHandler 1E2C                __end_of_TMR0_SetInterruptHandler 1E04  
                ?_ADCC_DischargeSampleCapacitor 0001                                      ??_TMR0_ISR 0005  
                       __end_of_ADCC_Initialize 1B30                                         _CCP1CON 000FAC  
                                       _CCP2CON 000FA8                                         _ADFLTRH 000F73  
                                       _ADFLTRL 000F72                                         _ADPREVH 000F62  
                                       _ADPREVL 000F61               fp__IOCBF4_DefaultInterruptHandler 0000  
              ??_IOCBF4_DefaultInterruptHandler 0001                 ?_IOCBF4_DefaultInterruptHandler 0001  
                                 ?_Luminosidade 0001                                         _ADSTPTH 000F69  
                                       _ADSTPTL 000F68                   __end_ofi2_Alarme_Luminosidade 1A88  
                                       ?_printf 0013                                 ?_PMD_Initialize 0001  
                          i2_Alarme_Temperatura 180A          __end_of_EUSART1_SetFramingErrorHandler 1E22  
                _EUSART1_SetFramingErrorHandler 1E18                                       ?___xxtofl 0007  
                                       _SP1BRGH 000F9C                                         _SP1BRGL 000F9B  
                                       _OSCCON1 000ED8                                         _OSCCON3 000EDA  
                                       i2u13_40 1C02                                         i2u13_41 1BFE  
                                       i2u14_48 1C08                                         i2u14_49 1C1A  
                                       _OSCTUNE 000EDD                                         i2u90_40 1826  
                                       i2u90_41 1822                                         i2u91_40 1842  
                                       i2u91_41 183E                                         i2u68_40 1D8E  
                                       i2u92_40 1866                                         i2u68_41 1D8A  
                                       i2u92_41 1862                                         i2u93_40 1A48  
                                       i2u93_41 1A44                                         i2u94_40 1A6C  
                                       i2u94_41 1A68                                         _SLRCONA 000F0E  
                                       _SLRCONB 000F16                                         _SLRCONC 000F1E  
                 __end_of_ADCC_IsConversionDone 1DBC                                         __Hparam 0000  
                                       __Lparam 0000                                         ___fldiv 0F14  
                                       ___fltol 15E8                                         ___lwdiv 18F8  
                                       ___lwmod 196C                                    __psmallconst 0F00  
                                ??_Luminosidade 001F                             _EUSART1_is_rx_ready 1D68  
                                   _Temperatura 16EE                                         __pcinit 1D94  
                         ?i2_Alarme_Temperatura 0001                                         __ramtop 0F00  
                                       __ptext0 1A88                                         __ptext1 16EE  
                                       __ptext2 12AE                                         __ptext3 15E8  
                                       __ptext4 0F14                                         __ptext5 1C20  
                                       __ptext6 1C4E                                         __ptext7 1CD2  
                                       __ptext8 1BB6                                         __ptext9 1DFA  
                                       _dpowers 0F01                           _OSCILLATOR_Initialize 1D0C  
                                     _T2CONbits 000FBD                                      ??___xxtofl 000B  
                            _EUSART1_Initialize 1B78                        ??_PIN_MANAGER_Initialize 0009  
                                     _T2HLTbits 000FBE                                       _IOCBFbits 000F12  
                                     _IOCBNbits 000F13                                       _IOCBPbits 000F14  
                          end_of_initialization 1D9E                            ?_EUSART1_is_rx_ready 0001  
                                     _T2RSTbits 000FC0                             ?_EUSART1_Initialize 0001  
                   _EUSART1_OverrunErrorHandler 003E                                         printf@c 001E  
                                       printf@f 0013                                         postdec2 000FDD  
                                       postinc2 000FDE                                ?_ADCC_Initialize 0001  
                          ??_EUSART1_Initialize 0009                        _TMR0_SetInterruptHandler 1DFA  
                                 ___xxtofl@sign 000F                                     ___fldiv@grs 0028  
                                   ___fldiv@rem 0021                             EUSART1_Write@txData 0007  
                         ??_EUSART1_is_rx_ready 0007                                     _CCP1CONbits 000FAC  
                                  _EUSART1_Read 1CA8                                     _CCP2CONbits 000FA8  
                          _timer0ReloadVal16bit 0044                    __end_of_INTERRUPT_Initialize 1E4C  
                        ??i2_Alarme_Temperatura 0003                          ?_OSCILLATOR_Initialize 0001  
                     ?_ADCC_GetConversionResult 0007                                  __end_of_printf 15E8  
                           start_initialization 1D94                                     putch@txData 0008  
                         __end_of_EUSART1_Write 1D3C                            __end_of_Luminosidade 1B78  
                              ??_PMD_Initialize 0007                                     _CCPTMRSbits 000FAE  
                                      ??_printf 0017                                       ___fldiv@a 0019  
                                     ___fldiv@b 0015                                     __pbssCOMRAM 0048  
        __end_of_IOCBF4_DefaultInterruptHandler 1E50                  _IOCBF4_DefaultInterruptHandler 1E4E  
              ??_EUSART1_SetFramingErrorHandler 0009                 ?_EUSART1_SetFramingErrorHandler 0007  
                         _TMR0_InterruptHandler 0042                      __end_of_Alarme_Temperatura 180A  
                              ___lwdiv@dividend 0007                          _PIN_MANAGER_Initialize 1882  
                                     __pintcode 0008                                        ?___fldiv 0015  
                                      ?___fltol 002E                                   ??_myTimer0ISR 0005  
                                      ?___lwdiv 0007                                        ?___lwmod 000E  
                                  ?_Temperatura 0001                                        _DAC1CON0 000F33  
                                      _DAC1CON1 000F34                               ??_PWM1_Initialize 0007  
                  ??_INTERRUPT_InterruptManager 0005                                        _BAUD1CON 000F9F  
                                   __smallconst 0F00                           i2_Alarme_Luminosidade 1A2C  
            _EUSART1_DefaultOverrunErrorHandler 000000                            _EUSART1_ErrorHandler 003C  
                       _EUSART1_SetErrorHandler 1E22                                ___lwdiv@quotient 000B  
                                 _TMR0_CallBack 1C7C                                        _T2CLKCON 000FBF  
                          _INTERRUPT_Initialize 1E48                           _ADCC_IsConversionDone 1DA8  
                             ??_TMR0_Initialize 0009                               ??_PWM2_Initialize 0007  
                                      _LATAbits 000F83         EUSART1_SetErrorHandler@interruptHandler 0007  
                                      _LATCbits 000F85                                        _PIE0bits 000EC2  
                                      i2u101_40 1C8E                                        i2u101_41 1C8A  
                                      i2u102_48 1C94                                        i2u102_49 1CA6  
                                      i2u160_40 0030                                        i2u160_41 002C  
                                      i2u161_40 0046                                        i2u161_41 0042  
                                      i2u162_40 0054                                        i2u162_41 0050  
                    ??_TMR0_SetInterruptHandler 0009                                        i2u166_47 1872  
                                      i2u159_40 0022                                        i2u159_41 001E  
                                      _PIR0bits 000ECA                                        i2u167_47 1A78  
                                      _PIR3bits 000ECD                                        _PIR4bits 000ECE  
                                      _TMR0_ISR 1DD0                               ??_PIN_MANAGER_IOC 0001  
                                    _ADCON0bits 000F60                                      _ADCON1bits 000F59  
                                    _ADCON2bits 000F5A                                      _ADCON3bits 000F5B  
                                    printf@flag 001A                                      printf@prec 001B  
                           __end_of_myTimer0ISR 1E40                                  ?_TMR0_CallBack 0001  
                         ?_INTERRUPT_Initialize 0001                               ??_DAC1_Initialize 0007  
                             ??_TMR2_Initialize 0007                                      _ADSTATbits 000F65  
                                      __Hrparam 0000                __end_of_ADCC_GetConversionResult 1DD0  
                                      __Lrparam 0000                         Temperatura@sensor_value 0038  
                       ??_OSCILLATOR_Initialize 0007                                    _Luminosidade 1B30  
                        ?i2_Alarme_Luminosidade 0001                       ??_EUSART1_SetErrorHandler 0009  
                   _EUSART1_DefaultErrorHandler 000000                     __end_of_EUSART1_is_rx_ready 1D7E  
                       _IOCBF4_InterruptHandler 0046                                        ___xxtofl 12AE  
                                    _T0CON0bits 000FD5                                 ___lwdiv@divisor 0009  
                               ___lwdiv@counter 000D                                        __ptext10 1D3C  
                                      __ptext11 1D52                                        __ptext20 1E22  
                                      __ptext12 1CF0                                        __ptext21 1DE2  
                                      __ptext13 1882                                        __ptext30 1DA8  
                                      __ptext22 1AE0                                        __ptext14 1E04  
                                      __ptext31 1DBC                                        __ptext23 1B30  
                                      __ptext15 1D0C                                        __ptext40 1E4C  
                                      __ptext32 1E40                                        __ptext24 1462  
                                      __ptext16 1E48                                        __ptext41 1E36  
                                      __ptext33 1D68                                        __ptext25 1E2C  
                                      __ptext17 1B78                                        __ptext42 180A  
                                      __ptext34 1CA8                                        __ptext26 1D24  
                                      __ptext18 1E0E                                        __ptext43 1A2C  
                                      __ptext35 1792                                        __ptext27 196C  
                                      __ptext19 1E18                                        __ptext44 1D7E  
                                      __ptext36 19D0                                        __ptext28 18F8  
                                      __ptext45 1BF0                                        __ptext29 1DEE  
                                      __ptext46 1E4E                                        __ptext38 1DD0  
                                      __ptext47 0000                                        __ptext39 1C7C  
                  ??_IOCBF4_SetInterruptHandler 0009                          ?_ADCC_IsConversionDone 0001  
                                    _IOCBF4_ISR 1BF0            __end_of_TMR0_DefaultInterruptHandler 1E4E  
                  _TMR0_DefaultInterruptHandler 1E4C                                      _RC1STAbits 000F9D  
EUSART1_SetOverrunErrorHandler@interruptHandler 0007                                        isa$xinst 000000  
                  __end_of_ADCC_StartConversion 1DFA                                        int$flags 004D  
            __end_of_INTERRUPT_InterruptManager 0064                      _INTERRUPT_InterruptManager 0008  
                                   _myTimer0ISR 1E36                                       printf@val 001C  
                   _EUSART1_FramingErrorHandler 0040                                      _INTCONbits 000FF2  
                           _Alarme_Luminosidade 19D0                                 ??_TMR0_CallBack 0005  
                                  _luminosidade 0048                          ??_INTERRUPT_Initialize 0007  
                                      intlevel2 0000                                ___lwmod@dividend 000E  
                       ?_PIN_MANAGER_Initialize 0001          __end_of_EUSART1_SetOverrunErrorHandler 1E18  
                _EUSART1_SetOverrunErrorHandler 1E0E                            ?_Alarme_Luminosidade 0007  
                               _PWM1_Initialize 1D52                 fp__TMR0_DefaultInterruptHandler 0000  
                 ?_TMR0_DefaultInterruptHandler 0001                                        printf@ap 0018  
EUSART1_SetFramingErrorHandler@interruptHandler 0007                        _ADCC_GetConversionResult 1DBC  
                            _eusart1RxLastError 004C                              _Alarme_Temperatura 1792  
                                   _temperatura 004A                                 ___lwmod@divisor 0010  
                               _TMR0_Initialize 1BB6                                 _PWM2_Initialize 1D3C  
                               ___lwmod@counter 0012                             ?_Alarme_Temperatura 0007  
                                    _TX1STAbits 000F9E                                     ?_IOCBF4_ISR 0001  
                __end_of_PIN_MANAGER_Initialize 18F8                               ??_ADCC_Initialize 0007  
                    __end_of_PWM1_LoadDutyValue 1C4E                                 _PIN_MANAGER_IOC 1D7E  
                         ??_Alarme_Luminosidade 0009                            ??_Alarme_Temperatura 0009  
